Component: ARM Compiler 5.06 update 6 (build 750) Tool: armlink [4d35ed]

==============================================================================

Section Cross References

    hc32_ll.o(i.LL_PERIPH_WE) refers to hc32_ll.o(i.PWC_REG_Unlock) for PWC_REG_Unlock
    hc32_ll.o(i.LL_PERIPH_WP) refers to hc32_ll.o(i.PWC_REG_Lock) for PWC_REG_Lock
    hc32_ll_clk.o(i.CLK_ClearXtalStdStatus) refers to hc32_ll_utility.o(i.DDL_AssertHandler) for DDL_AssertHandler
    hc32_ll_clk.o(i.CLK_GetBusClockFreq) refers to hc32_ll_utility.o(i.DDL_AssertHandler) for DDL_AssertHandler
    hc32_ll_clk.o(i.CLK_GetBusClockFreq) refers to system_hc32f460.o(.data) for SystemCoreClock
    hc32_ll_clk.o(i.CLK_GetClockFreq) refers to hc32_ll_clk.o(i.GetClockFreq) for GetClockFreq
    hc32_ll_clk.o(i.CLK_GetPLLClockFreq) refers to system_hc32f460.o(.data) for HRC_VALUE
    hc32_ll_clk.o(i.CLK_GetStableStatus) refers to hc32_ll_utility.o(i.DDL_AssertHandler) for DDL_AssertHandler
    hc32_ll_clk.o(i.CLK_HrcCmd) refers to hc32_ll_utility.o(i.DDL_AssertHandler) for DDL_AssertHandler
    hc32_ll_clk.o(i.CLK_HrcCmd) refers to hc32_ll_clk.o(i.CLK_WaitStable) for CLK_WaitStable
    hc32_ll_clk.o(i.CLK_HrcTrim) refers to hc32_ll_utility.o(i.DDL_AssertHandler) for DDL_AssertHandler
    hc32_ll_clk.o(i.CLK_LrcCmd) refers to hc32_ll_utility.o(i.DDL_AssertHandler) for DDL_AssertHandler
    hc32_ll_clk.o(i.CLK_LrcCmd) refers to hc32_ll_utility.o(i.DDL_DelayUS) for DDL_DelayUS
    hc32_ll_clk.o(i.CLK_LrcTrim) refers to hc32_ll_utility.o(i.DDL_AssertHandler) for DDL_AssertHandler
    hc32_ll_clk.o(i.CLK_MCOCmd) refers to hc32_ll_utility.o(i.DDL_AssertHandler) for DDL_AssertHandler
    hc32_ll_clk.o(i.CLK_MCOConfig) refers to hc32_ll_utility.o(i.DDL_AssertHandler) for DDL_AssertHandler
    hc32_ll_clk.o(i.CLK_MrcCmd) refers to hc32_ll_utility.o(i.DDL_AssertHandler) for DDL_AssertHandler
    hc32_ll_clk.o(i.CLK_MrcCmd) refers to hc32_ll_utility.o(i.DDL_DelayUS) for DDL_DelayUS
    hc32_ll_clk.o(i.CLK_MrcTrim) refers to hc32_ll_utility.o(i.DDL_AssertHandler) for DDL_AssertHandler
    hc32_ll_clk.o(i.CLK_PLLCmd) refers to hc32_ll_utility.o(i.DDL_AssertHandler) for DDL_AssertHandler
    hc32_ll_clk.o(i.CLK_PLLCmd) refers to hc32_ll_clk.o(i.CLK_WaitStable) for CLK_WaitStable
    hc32_ll_clk.o(i.CLK_PLLInit) refers to hc32_ll_utility.o(i.DDL_AssertHandler) for DDL_AssertHandler
    hc32_ll_clk.o(i.CLK_PLLInit) refers to hc32_ll_clk.o(i.CLK_PLLCmd) for CLK_PLLCmd
    hc32_ll_clk.o(i.CLK_PLLInit) refers to system_hc32f460.o(.data) for HRC_VALUE
    hc32_ll_clk.o(i.CLK_PLLxCmd) refers to hc32_ll_utility.o(i.DDL_AssertHandler) for DDL_AssertHandler
    hc32_ll_clk.o(i.CLK_PLLxCmd) refers to hc32_ll_clk.o(i.CLK_WaitStable) for CLK_WaitStable
    hc32_ll_clk.o(i.CLK_PLLxInit) refers to hc32_ll_clk.o(i.PLLxParamCheck) for PLLxParamCheck
    hc32_ll_clk.o(i.CLK_PLLxInit) refers to hc32_ll_clk.o(i.CLK_PLLxCmd) for CLK_PLLxCmd
    hc32_ll_clk.o(i.CLK_SetClockDiv) refers to hc32_ll_clk.o(i.SetSysClockDiv) for SetSysClockDiv
    hc32_ll_clk.o(i.CLK_SetClockDiv) refers to system_hc32f460.o(i.SystemCoreClockUpdate) for SystemCoreClockUpdate
    hc32_ll_clk.o(i.CLK_SetI2SClockSrc) refers to hc32_ll_utility.o(i.DDL_AssertHandler) for DDL_AssertHandler
    hc32_ll_clk.o(i.CLK_SetPLLSrc) refers to hc32_ll_utility.o(i.DDL_AssertHandler) for DDL_AssertHandler
    hc32_ll_clk.o(i.CLK_SetPeriClockSrc) refers to hc32_ll_utility.o(i.DDL_AssertHandler) for DDL_AssertHandler
    hc32_ll_clk.o(i.CLK_SetSysClockSrc) refers to hc32_ll_clk.o(i.SetSysClockSrc) for SetSysClockSrc
    hc32_ll_clk.o(i.CLK_SetSysClockSrc) refers to system_hc32f460.o(i.SystemCoreClockUpdate) for SystemCoreClockUpdate
    hc32_ll_clk.o(i.CLK_SetTpiuClockDiv) refers to hc32_ll_utility.o(i.DDL_AssertHandler) for DDL_AssertHandler
    hc32_ll_clk.o(i.CLK_SetUSBClockSrc) refers to hc32_ll_utility.o(i.DDL_AssertHandler) for DDL_AssertHandler
    hc32_ll_clk.o(i.CLK_SetUSBClockSrc) refers to hc32_ll_utility.o(i.DDL_DelayUS) for DDL_DelayUS
    hc32_ll_clk.o(i.CLK_TpiuClockCmd) refers to hc32_ll_utility.o(i.DDL_AssertHandler) for DDL_AssertHandler
    hc32_ll_clk.o(i.CLK_WaitStable) refers to hc32_ll_clk.o(i.CLK_GetStableStatus) for CLK_GetStableStatus
    hc32_ll_clk.o(i.CLK_Xtal32Cmd) refers to hc32_ll_utility.o(i.DDL_AssertHandler) for DDL_AssertHandler
    hc32_ll_clk.o(i.CLK_Xtal32Cmd) refers to hc32_ll_utility.o(i.DDL_DelayUS) for DDL_DelayUS
    hc32_ll_clk.o(i.CLK_Xtal32Init) refers to hc32_ll_utility.o(i.DDL_AssertHandler) for DDL_AssertHandler
    hc32_ll_clk.o(i.CLK_Xtal32Init) refers to hc32_ll_clk.o(i.CLK_Xtal32Cmd) for CLK_Xtal32Cmd
    hc32_ll_clk.o(i.CLK_XtalCmd) refers to hc32_ll_utility.o(i.DDL_AssertHandler) for DDL_AssertHandler
    hc32_ll_clk.o(i.CLK_XtalCmd) refers to hc32_ll_clk.o(i.CLK_WaitStable) for CLK_WaitStable
    hc32_ll_clk.o(i.CLK_XtalInit) refers to hc32_ll_utility.o(i.DDL_AssertHandler) for DDL_AssertHandler
    hc32_ll_clk.o(i.CLK_XtalInit) refers to hc32_ll_clk.o(i.CLK_XtalCmd) for CLK_XtalCmd
    hc32_ll_clk.o(i.CLK_XtalStdInit) refers to hc32_ll_utility.o(i.DDL_AssertHandler) for DDL_AssertHandler
    hc32_ll_clk.o(i.GetClockFreq) refers to system_hc32f460.o(.data) for HRC_VALUE
    hc32_ll_clk.o(i.PLLxParamCheck) refers to hc32_ll_utility.o(i.DDL_AssertHandler) for DDL_AssertHandler
    hc32_ll_clk.o(i.PLLxParamCheck) refers to system_hc32f460.o(.data) for HRC_VALUE
    hc32_ll_clk.o(i.SetSysClockDiv) refers to hc32_ll_utility.o(i.DDL_AssertHandler) for DDL_AssertHandler
    hc32_ll_clk.o(i.SetSysClockDiv) refers to hc32_ll_utility.o(i.DDL_DelayUS) for DDL_DelayUS
    hc32_ll_clk.o(i.SetSysClockSrc) refers to hc32_ll_utility.o(i.DDL_AssertHandler) for DDL_AssertHandler
    hc32_ll_clk.o(i.SetSysClockSrc) refers to hc32_ll_utility.o(i.DDL_DelayUS) for DDL_DelayUS
    hc32_ll_efm.o(RAMCODE) refers to system_hc32f460.o(.data) for SystemCoreClock
    hc32_ll_efm.o(i.EFM_CacheCmd) refers to hc32_ll_utility.o(i.DDL_AssertHandler) for DDL_AssertHandler
    hc32_ll_efm.o(i.EFM_ClearStatus) refers to hc32_ll_utility.o(i.DDL_AssertHandler) for DDL_AssertHandler
    hc32_ll_efm.o(i.EFM_Cmd) refers to hc32_ll_utility.o(i.DDL_AssertHandler) for DDL_AssertHandler
    hc32_ll_efm.o(i.EFM_DataCacheResetCmd) refers to hc32_ll_utility.o(i.DDL_AssertHandler) for DDL_AssertHandler
    hc32_ll_efm.o(i.EFM_FWMC_Cmd) refers to hc32_ll_utility.o(i.DDL_AssertHandler) for DDL_AssertHandler
    hc32_ll_efm.o(i.EFM_GetAnyStatus) refers to hc32_ll_utility.o(i.DDL_AssertHandler) for DDL_AssertHandler
    hc32_ll_efm.o(i.EFM_GetStatus) refers to hc32_ll_utility.o(i.DDL_AssertHandler) for DDL_AssertHandler
    hc32_ll_efm.o(i.EFM_IntCmd) refers to hc32_ll_utility.o(i.DDL_AssertHandler) for DDL_AssertHandler
    hc32_ll_efm.o(i.EFM_LowVoltageCmd) refers to hc32_ll_utility.o(i.DDL_AssertHandler) for DDL_AssertHandler
    hc32_ll_efm.o(i.EFM_LowVoltageReadCmd) refers to hc32_ll_utility.o(i.DDL_AssertHandler) for DDL_AssertHandler
    hc32_ll_efm.o(i.EFM_OTP_Lock) refers to hc32_ll_utility.o(i.DDL_AssertHandler) for DDL_AssertHandler
    hc32_ll_efm.o(i.EFM_OTP_Lock) refers to hc32_ll_efm.o(i.EFM_WaitFlag) for EFM_WaitFlag
    hc32_ll_efm.o(i.EFM_OTP_Lock) refers to hc32_ll_efm.o(i.EFM_ClearStatus) for EFM_ClearStatus
    hc32_ll_efm.o(i.EFM_OTP_Lock) refers to system_hc32f460.o(.data) for SystemCoreClock
    hc32_ll_efm.o(i.EFM_Program) refers to hc32_ll_utility.o(i.DDL_AssertHandler) for DDL_AssertHandler
    hc32_ll_efm.o(i.EFM_Program) refers to hc32_ll_efm.o(i.EFM_ClearStatus) for EFM_ClearStatus
    hc32_ll_efm.o(i.EFM_Program) refers to hc32_ll_efm.o(i.EFM_WaitFlag) for EFM_WaitFlag
    hc32_ll_efm.o(i.EFM_Program) refers to system_hc32f460.o(.data) for SystemCoreClock
    hc32_ll_efm.o(i.EFM_ProgramWord) refers to hc32_ll_utility.o(i.DDL_AssertHandler) for DDL_AssertHandler
    hc32_ll_efm.o(i.EFM_ProgramWord) refers to hc32_ll_efm.o(i.EFM_ClearStatus) for EFM_ClearStatus
    hc32_ll_efm.o(i.EFM_ProgramWord) refers to hc32_ll_efm.o(i.EFM_WaitFlag) for EFM_WaitFlag
    hc32_ll_efm.o(i.EFM_ProgramWord) refers to system_hc32f460.o(.data) for SystemCoreClock
    hc32_ll_efm.o(i.EFM_ProgramWordReadBack) refers to hc32_ll_utility.o(i.DDL_AssertHandler) for DDL_AssertHandler
    hc32_ll_efm.o(i.EFM_ProgramWordReadBack) refers to hc32_ll_efm.o(i.EFM_ClearStatus) for EFM_ClearStatus
    hc32_ll_efm.o(i.EFM_ProgramWordReadBack) refers to hc32_ll_efm.o(i.EFM_WaitFlag) for EFM_WaitFlag
    hc32_ll_efm.o(i.EFM_ProgramWordReadBack) refers to hc32_ll_efm.o(i.EFM_GetStatus) for EFM_GetStatus
    hc32_ll_efm.o(i.EFM_ProgramWordReadBack) refers to system_hc32f460.o(.data) for SystemCoreClock
    hc32_ll_efm.o(i.EFM_Protect_Enable) refers to hc32_ll_efm.o(i.EFM_Program) for EFM_Program
    hc32_ll_efm.o(i.EFM_Protect_Enable) refers to hc32_ll_efm.o(i.EFM_ProgramWord) for EFM_ProgramWord
    hc32_ll_efm.o(i.EFM_REMAP_Cmd) refers to hc32_ll_utility.o(i.DDL_AssertHandler) for DDL_AssertHandler
    hc32_ll_efm.o(i.EFM_REMAP_DeInit) refers to hc32_ll_utility.o(i.DDL_AssertHandler) for DDL_AssertHandler
    hc32_ll_efm.o(i.EFM_REMAP_Init) refers to hc32_ll_utility.o(i.DDL_AssertHandler) for DDL_AssertHandler
    hc32_ll_efm.o(i.EFM_REMAP_SetAddr) refers to hc32_ll_utility.o(i.DDL_AssertHandler) for DDL_AssertHandler
    hc32_ll_efm.o(i.EFM_REMAP_SetSize) refers to hc32_ll_utility.o(i.DDL_AssertHandler) for DDL_AssertHandler
    hc32_ll_efm.o(i.EFM_ReadByte) refers to hc32_ll_utility.o(i.DDL_AssertHandler) for DDL_AssertHandler
    hc32_ll_efm.o(i.EFM_ReadByte) refers to hc32_ll_efm.o(i.EFM_WaitFlag) for EFM_WaitFlag
    hc32_ll_efm.o(i.EFM_ReadByte) refers to system_hc32f460.o(.data) for SystemCoreClock
    hc32_ll_efm.o(i.EFM_SectorErase) refers to hc32_ll_utility.o(i.DDL_AssertHandler) for DDL_AssertHandler
    hc32_ll_efm.o(i.EFM_SectorErase) refers to hc32_ll_efm.o(i.EFM_ClearStatus) for EFM_ClearStatus
    hc32_ll_efm.o(i.EFM_SectorErase) refers to hc32_ll_efm.o(i.EFM_WaitFlag) for EFM_WaitFlag
    hc32_ll_efm.o(i.EFM_SectorErase) refers to system_hc32f460.o(.data) for SystemCoreClock
    hc32_ll_efm.o(i.EFM_SetBusStatus) refers to hc32_ll_utility.o(i.DDL_AssertHandler) for DDL_AssertHandler
    hc32_ll_efm.o(i.EFM_SetOperateMode) refers to hc32_ll_utility.o(i.DDL_AssertHandler) for DDL_AssertHandler
    hc32_ll_efm.o(i.EFM_SetOperateMode) refers to hc32_ll_efm.o(i.EFM_WaitFlag) for EFM_WaitFlag
    hc32_ll_efm.o(i.EFM_SetOperateMode) refers to system_hc32f460.o(.data) for SystemCoreClock
    hc32_ll_efm.o(i.EFM_SetWaitCycle) refers to hc32_ll_utility.o(i.DDL_AssertHandler) for DDL_AssertHandler
    hc32_ll_efm.o(i.EFM_SetWaitCycle) refers to system_hc32f460.o(.data) for SystemCoreClock
    hc32_ll_efm.o(i.EFM_SetWindowProtectAddr) refers to hc32_ll_utility.o(i.DDL_AssertHandler) for DDL_AssertHandler
    hc32_ll_efm.o(i.EFM_SwapCmd) refers to hc32_ll_utility.o(i.DDL_AssertHandler) for DDL_AssertHandler
    hc32_ll_efm.o(i.EFM_SwapCmd) refers to hc32_ll_efm.o(i.EFM_WaitFlag) for EFM_WaitFlag
    hc32_ll_efm.o(i.EFM_SwapCmd) refers to hc32_ll_efm.o(i.EFM_ClearStatus) for EFM_ClearStatus
    hc32_ll_efm.o(i.EFM_SwapCmd) refers to system_hc32f460.o(.data) for SystemCoreClock
    hc32_ll_efm.o(i.EFM_WaitFlag) refers to hc32_ll_efm.o(i.EFM_GetStatus) for EFM_GetStatus
    hc32_ll_efm.o(i.EFM_WriteSecurityCode) refers to hc32_ll_utility.o(i.DDL_AssertHandler) for DDL_AssertHandler
    hc32_ll_efm.o(i.EFM_WriteSecurityCode) refers to hc32_ll_efm.o(i.EFM_ClearStatus) for EFM_ClearStatus
    hc32_ll_efm.o(i.EFM_WriteSecurityCode) refers to hc32_ll_efm.o(i.EFM_WaitFlag) for EFM_WaitFlag
    hc32_ll_efm.o(i.EFM_WriteSecurityCode) refers to system_hc32f460.o(.data) for SystemCoreClock
    hc32_ll_gpio.o(i.GPIO_AnalogCmd) refers to hc32_ll_utility.o(i.DDL_AssertHandler) for DDL_AssertHandler
    hc32_ll_gpio.o(i.GPIO_DeInit) refers to hc32_ll_utility.o(i.DDL_AssertHandler) for DDL_AssertHandler
    hc32_ll_gpio.o(i.GPIO_DeInit) refers to hc32_ll_gpio.o(i.GPIO_StructInit) for GPIO_StructInit
    hc32_ll_gpio.o(i.GPIO_DeInit) refers to hc32_ll_gpio.o(i.GPIO_Init) for GPIO_Init
    hc32_ll_gpio.o(i.GPIO_DeInit) refers to hc32_ll_gpio.o(.constdata) for m_astcGpioPortPinTbl
    hc32_ll_gpio.o(i.GPIO_Init) refers to hc32_ll_utility.o(i.DDL_AssertHandler) for DDL_AssertHandler
    hc32_ll_gpio.o(i.GPIO_InputMOSCmd) refers to hc32_ll_utility.o(i.DDL_AssertHandler) for DDL_AssertHandler
    hc32_ll_gpio.o(i.GPIO_OutputCmd) refers to hc32_ll_utility.o(i.DDL_AssertHandler) for DDL_AssertHandler
    hc32_ll_gpio.o(i.GPIO_ReadInputPins) refers to hc32_ll_utility.o(i.DDL_AssertHandler) for DDL_AssertHandler
    hc32_ll_gpio.o(i.GPIO_ReadInputPort) refers to hc32_ll_utility.o(i.DDL_AssertHandler) for DDL_AssertHandler
    hc32_ll_gpio.o(i.GPIO_ReadOutputPins) refers to hc32_ll_utility.o(i.DDL_AssertHandler) for DDL_AssertHandler
    hc32_ll_gpio.o(i.GPIO_ReadOutputPort) refers to hc32_ll_utility.o(i.DDL_AssertHandler) for DDL_AssertHandler
    hc32_ll_gpio.o(i.GPIO_ResetPins) refers to hc32_ll_utility.o(i.DDL_AssertHandler) for DDL_AssertHandler
    hc32_ll_gpio.o(i.GPIO_SetDebugPort) refers to hc32_ll_utility.o(i.DDL_AssertHandler) for DDL_AssertHandler
    hc32_ll_gpio.o(i.GPIO_SetFunc) refers to hc32_ll_utility.o(i.DDL_AssertHandler) for DDL_AssertHandler
    hc32_ll_gpio.o(i.GPIO_SetPins) refers to hc32_ll_utility.o(i.DDL_AssertHandler) for DDL_AssertHandler
    hc32_ll_gpio.o(i.GPIO_SetReadWaitCycle) refers to hc32_ll_utility.o(i.DDL_AssertHandler) for DDL_AssertHandler
    hc32_ll_gpio.o(i.GPIO_SetSubFunc) refers to hc32_ll_utility.o(i.DDL_AssertHandler) for DDL_AssertHandler
    hc32_ll_gpio.o(i.GPIO_SubFuncCmd) refers to hc32_ll_utility.o(i.DDL_AssertHandler) for DDL_AssertHandler
    hc32_ll_gpio.o(i.GPIO_TogglePins) refers to hc32_ll_utility.o(i.DDL_AssertHandler) for DDL_AssertHandler
    hc32_ll_gpio.o(i.GPIO_WritePort) refers to hc32_ll_utility.o(i.DDL_AssertHandler) for DDL_AssertHandler
    hc32_ll_interrupts.o(i.EXTINT_ClearExtIntStatus) refers to hc32_ll_utility.o(i.DDL_AssertHandler) for DDL_AssertHandler
    hc32_ll_interrupts.o(i.EXTINT_GetExtIntStatus) refers to hc32_ll_utility.o(i.DDL_AssertHandler) for DDL_AssertHandler
    hc32_ll_interrupts.o(i.EXTINT_Init) refers to hc32_ll_utility.o(i.DDL_AssertHandler) for DDL_AssertHandler
    hc32_ll_interrupts.o(i.INTC_EventCmd) refers to hc32_ll_utility.o(i.DDL_AssertHandler) for DDL_AssertHandler
    hc32_ll_interrupts.o(i.INTC_IntCmd) refers to hc32_ll_utility.o(i.DDL_AssertHandler) for DDL_AssertHandler
    hc32_ll_interrupts.o(i.INTC_IrqSignIn) refers to hc32_ll_utility.o(i.DDL_AssertHandler) for DDL_AssertHandler
    hc32_ll_interrupts.o(i.INTC_IrqSignIn) refers to hc32_ll_interrupts.o(.bss) for m_apfnIrqHandler
    hc32_ll_interrupts.o(i.INTC_IrqSignOut) refers to hc32_ll_interrupts.o(.bss) for m_apfnIrqHandler
    hc32_ll_interrupts.o(i.INTC_SWIntCmd) refers to hc32_ll_utility.o(i.DDL_AssertHandler) for DDL_AssertHandler
    hc32_ll_interrupts.o(i.INTC_SWIntInit) refers to hc32_ll_interrupts.o(i.INTC_IrqSignIn) for INTC_IrqSignIn
    hc32_ll_interrupts.o(i.INTC_WakeupSrcCmd) refers to hc32_ll_utility.o(i.DDL_AssertHandler) for DDL_AssertHandler
    hc32_ll_interrupts.o(i.IRQ000_Handler) refers to hc32_ll_interrupts.o(.bss) for m_apfnIrqHandler
    hc32_ll_interrupts.o(i.IRQ001_Handler) refers to hc32_ll_interrupts.o(.bss) for m_apfnIrqHandler
    hc32_ll_interrupts.o(i.IRQ002_Handler) refers to hc32_ll_interrupts.o(.bss) for m_apfnIrqHandler
    hc32_ll_interrupts.o(i.IRQ003_Handler) refers to hc32_ll_interrupts.o(.bss) for m_apfnIrqHandler
    hc32_ll_interrupts.o(i.IRQ004_Handler) refers to hc32_ll_interrupts.o(.bss) for m_apfnIrqHandler
    hc32_ll_interrupts.o(i.IRQ005_Handler) refers to hc32_ll_interrupts.o(.bss) for m_apfnIrqHandler
    hc32_ll_interrupts.o(i.IRQ006_Handler) refers to hc32_ll_interrupts.o(.bss) for m_apfnIrqHandler
    hc32_ll_interrupts.o(i.IRQ007_Handler) refers to hc32_ll_interrupts.o(.bss) for m_apfnIrqHandler
    hc32_ll_interrupts.o(i.IRQ008_Handler) refers to hc32_ll_interrupts.o(.bss) for m_apfnIrqHandler
    hc32_ll_interrupts.o(i.IRQ009_Handler) refers to hc32_ll_interrupts.o(.bss) for m_apfnIrqHandler
    hc32_ll_interrupts.o(i.IRQ010_Handler) refers to hc32_ll_interrupts.o(.bss) for m_apfnIrqHandler
    hc32_ll_interrupts.o(i.IRQ011_Handler) refers to hc32_ll_interrupts.o(.bss) for m_apfnIrqHandler
    hc32_ll_interrupts.o(i.IRQ012_Handler) refers to hc32_ll_interrupts.o(.bss) for m_apfnIrqHandler
    hc32_ll_interrupts.o(i.IRQ013_Handler) refers to hc32_ll_interrupts.o(.bss) for m_apfnIrqHandler
    hc32_ll_interrupts.o(i.IRQ014_Handler) refers to hc32_ll_interrupts.o(.bss) for m_apfnIrqHandler
    hc32_ll_interrupts.o(i.IRQ015_Handler) refers to hc32_ll_interrupts.o(.bss) for m_apfnIrqHandler
    hc32_ll_interrupts.o(i.IRQ016_Handler) refers to hc32_ll_interrupts.o(.bss) for m_apfnIrqHandler
    hc32_ll_interrupts.o(i.IRQ017_Handler) refers to hc32_ll_interrupts.o(.bss) for m_apfnIrqHandler
    hc32_ll_interrupts.o(i.IRQ018_Handler) refers to hc32_ll_interrupts.o(.bss) for m_apfnIrqHandler
    hc32_ll_interrupts.o(i.IRQ019_Handler) refers to hc32_ll_interrupts.o(.bss) for m_apfnIrqHandler
    hc32_ll_interrupts.o(i.IRQ020_Handler) refers to hc32_ll_interrupts.o(.bss) for m_apfnIrqHandler
    hc32_ll_interrupts.o(i.IRQ021_Handler) refers to hc32_ll_interrupts.o(.bss) for m_apfnIrqHandler
    hc32_ll_interrupts.o(i.IRQ022_Handler) refers to hc32_ll_interrupts.o(.bss) for m_apfnIrqHandler
    hc32_ll_interrupts.o(i.IRQ023_Handler) refers to hc32_ll_interrupts.o(.bss) for m_apfnIrqHandler
    hc32_ll_interrupts.o(i.IRQ024_Handler) refers to hc32_ll_interrupts.o(.bss) for m_apfnIrqHandler
    hc32_ll_interrupts.o(i.IRQ025_Handler) refers to hc32_ll_interrupts.o(.bss) for m_apfnIrqHandler
    hc32_ll_interrupts.o(i.IRQ026_Handler) refers to hc32_ll_interrupts.o(.bss) for m_apfnIrqHandler
    hc32_ll_interrupts.o(i.IRQ027_Handler) refers to hc32_ll_interrupts.o(.bss) for m_apfnIrqHandler
    hc32_ll_interrupts.o(i.IRQ028_Handler) refers to hc32_ll_interrupts.o(.bss) for m_apfnIrqHandler
    hc32_ll_interrupts.o(i.IRQ029_Handler) refers to hc32_ll_interrupts.o(.bss) for m_apfnIrqHandler
    hc32_ll_interrupts.o(i.IRQ030_Handler) refers to hc32_ll_interrupts.o(.bss) for m_apfnIrqHandler
    hc32_ll_interrupts.o(i.IRQ031_Handler) refers to hc32_ll_interrupts.o(.bss) for m_apfnIrqHandler
    hc32_ll_interrupts.o(i.IRQ032_Handler) refers to hc32_ll_interrupts.o(.bss) for m_apfnIrqHandler
    hc32_ll_interrupts.o(i.IRQ033_Handler) refers to hc32_ll_interrupts.o(.bss) for m_apfnIrqHandler
    hc32_ll_interrupts.o(i.IRQ034_Handler) refers to hc32_ll_interrupts.o(.bss) for m_apfnIrqHandler
    hc32_ll_interrupts.o(i.IRQ035_Handler) refers to hc32_ll_interrupts.o(.bss) for m_apfnIrqHandler
    hc32_ll_interrupts.o(i.IRQ036_Handler) refers to hc32_ll_interrupts.o(.bss) for m_apfnIrqHandler
    hc32_ll_interrupts.o(i.IRQ037_Handler) refers to hc32_ll_interrupts.o(.bss) for m_apfnIrqHandler
    hc32_ll_interrupts.o(i.IRQ038_Handler) refers to hc32_ll_interrupts.o(.bss) for m_apfnIrqHandler
    hc32_ll_interrupts.o(i.IRQ039_Handler) refers to hc32_ll_interrupts.o(.bss) for m_apfnIrqHandler
    hc32_ll_interrupts.o(i.IRQ040_Handler) refers to hc32_ll_interrupts.o(.bss) for m_apfnIrqHandler
    hc32_ll_interrupts.o(i.IRQ041_Handler) refers to hc32_ll_interrupts.o(.bss) for m_apfnIrqHandler
    hc32_ll_interrupts.o(i.IRQ042_Handler) refers to hc32_ll_interrupts.o(.bss) for m_apfnIrqHandler
    hc32_ll_interrupts.o(i.IRQ043_Handler) refers to hc32_ll_interrupts.o(.bss) for m_apfnIrqHandler
    hc32_ll_interrupts.o(i.IRQ044_Handler) refers to hc32_ll_interrupts.o(.bss) for m_apfnIrqHandler
    hc32_ll_interrupts.o(i.IRQ045_Handler) refers to hc32_ll_interrupts.o(.bss) for m_apfnIrqHandler
    hc32_ll_interrupts.o(i.IRQ046_Handler) refers to hc32_ll_interrupts.o(.bss) for m_apfnIrqHandler
    hc32_ll_interrupts.o(i.IRQ047_Handler) refers to hc32_ll_interrupts.o(.bss) for m_apfnIrqHandler
    hc32_ll_interrupts.o(i.IRQ048_Handler) refers to hc32_ll_interrupts.o(.bss) for m_apfnIrqHandler
    hc32_ll_interrupts.o(i.IRQ049_Handler) refers to hc32_ll_interrupts.o(.bss) for m_apfnIrqHandler
    hc32_ll_interrupts.o(i.IRQ050_Handler) refers to hc32_ll_interrupts.o(.bss) for m_apfnIrqHandler
    hc32_ll_interrupts.o(i.IRQ051_Handler) refers to hc32_ll_interrupts.o(.bss) for m_apfnIrqHandler
    hc32_ll_interrupts.o(i.IRQ052_Handler) refers to hc32_ll_interrupts.o(.bss) for m_apfnIrqHandler
    hc32_ll_interrupts.o(i.IRQ053_Handler) refers to hc32_ll_interrupts.o(.bss) for m_apfnIrqHandler
    hc32_ll_interrupts.o(i.IRQ054_Handler) refers to hc32_ll_interrupts.o(.bss) for m_apfnIrqHandler
    hc32_ll_interrupts.o(i.IRQ055_Handler) refers to hc32_ll_interrupts.o(.bss) for m_apfnIrqHandler
    hc32_ll_interrupts.o(i.IRQ056_Handler) refers to hc32_ll_interrupts.o(.bss) for m_apfnIrqHandler
    hc32_ll_interrupts.o(i.IRQ057_Handler) refers to hc32_ll_interrupts.o(.bss) for m_apfnIrqHandler
    hc32_ll_interrupts.o(i.IRQ058_Handler) refers to hc32_ll_interrupts.o(.bss) for m_apfnIrqHandler
    hc32_ll_interrupts.o(i.IRQ059_Handler) refers to hc32_ll_interrupts.o(.bss) for m_apfnIrqHandler
    hc32_ll_interrupts.o(i.IRQ060_Handler) refers to hc32_ll_interrupts.o(.bss) for m_apfnIrqHandler
    hc32_ll_interrupts.o(i.IRQ061_Handler) refers to hc32_ll_interrupts.o(.bss) for m_apfnIrqHandler
    hc32_ll_interrupts.o(i.IRQ062_Handler) refers to hc32_ll_interrupts.o(.bss) for m_apfnIrqHandler
    hc32_ll_interrupts.o(i.IRQ063_Handler) refers to hc32_ll_interrupts.o(.bss) for m_apfnIrqHandler
    hc32_ll_interrupts.o(i.IRQ064_Handler) refers to hc32_ll_interrupts.o(.bss) for m_apfnIrqHandler
    hc32_ll_interrupts.o(i.IRQ065_Handler) refers to hc32_ll_interrupts.o(.bss) for m_apfnIrqHandler
    hc32_ll_interrupts.o(i.IRQ066_Handler) refers to hc32_ll_interrupts.o(.bss) for m_apfnIrqHandler
    hc32_ll_interrupts.o(i.IRQ067_Handler) refers to hc32_ll_interrupts.o(.bss) for m_apfnIrqHandler
    hc32_ll_interrupts.o(i.IRQ068_Handler) refers to hc32_ll_interrupts.o(.bss) for m_apfnIrqHandler
    hc32_ll_interrupts.o(i.IRQ069_Handler) refers to hc32_ll_interrupts.o(.bss) for m_apfnIrqHandler
    hc32_ll_interrupts.o(i.IRQ070_Handler) refers to hc32_ll_interrupts.o(.bss) for m_apfnIrqHandler
    hc32_ll_interrupts.o(i.IRQ071_Handler) refers to hc32_ll_interrupts.o(.bss) for m_apfnIrqHandler
    hc32_ll_interrupts.o(i.IRQ072_Handler) refers to hc32_ll_interrupts.o(.bss) for m_apfnIrqHandler
    hc32_ll_interrupts.o(i.IRQ073_Handler) refers to hc32_ll_interrupts.o(.bss) for m_apfnIrqHandler
    hc32_ll_interrupts.o(i.IRQ074_Handler) refers to hc32_ll_interrupts.o(.bss) for m_apfnIrqHandler
    hc32_ll_interrupts.o(i.IRQ075_Handler) refers to hc32_ll_interrupts.o(.bss) for m_apfnIrqHandler
    hc32_ll_interrupts.o(i.IRQ076_Handler) refers to hc32_ll_interrupts.o(.bss) for m_apfnIrqHandler
    hc32_ll_interrupts.o(i.IRQ077_Handler) refers to hc32_ll_interrupts.o(.bss) for m_apfnIrqHandler
    hc32_ll_interrupts.o(i.IRQ078_Handler) refers to hc32_ll_interrupts.o(.bss) for m_apfnIrqHandler
    hc32_ll_interrupts.o(i.IRQ079_Handler) refers to hc32_ll_interrupts.o(.bss) for m_apfnIrqHandler
    hc32_ll_interrupts.o(i.IRQ080_Handler) refers to hc32_ll_interrupts.o(.bss) for m_apfnIrqHandler
    hc32_ll_interrupts.o(i.IRQ081_Handler) refers to hc32_ll_interrupts.o(.bss) for m_apfnIrqHandler
    hc32_ll_interrupts.o(i.IRQ082_Handler) refers to hc32_ll_interrupts.o(.bss) for m_apfnIrqHandler
    hc32_ll_interrupts.o(i.IRQ083_Handler) refers to hc32_ll_interrupts.o(.bss) for m_apfnIrqHandler
    hc32_ll_interrupts.o(i.IRQ084_Handler) refers to hc32_ll_interrupts.o(.bss) for m_apfnIrqHandler
    hc32_ll_interrupts.o(i.IRQ085_Handler) refers to hc32_ll_interrupts.o(.bss) for m_apfnIrqHandler
    hc32_ll_interrupts.o(i.IRQ086_Handler) refers to hc32_ll_interrupts.o(.bss) for m_apfnIrqHandler
    hc32_ll_interrupts.o(i.IRQ087_Handler) refers to hc32_ll_interrupts.o(.bss) for m_apfnIrqHandler
    hc32_ll_interrupts.o(i.IRQ088_Handler) refers to hc32_ll_interrupts.o(.bss) for m_apfnIrqHandler
    hc32_ll_interrupts.o(i.IRQ089_Handler) refers to hc32_ll_interrupts.o(.bss) for m_apfnIrqHandler
    hc32_ll_interrupts.o(i.IRQ090_Handler) refers to hc32_ll_interrupts.o(.bss) for m_apfnIrqHandler
    hc32_ll_interrupts.o(i.IRQ091_Handler) refers to hc32_ll_interrupts.o(.bss) for m_apfnIrqHandler
    hc32_ll_interrupts.o(i.IRQ092_Handler) refers to hc32_ll_interrupts.o(.bss) for m_apfnIrqHandler
    hc32_ll_interrupts.o(i.IRQ093_Handler) refers to hc32_ll_interrupts.o(.bss) for m_apfnIrqHandler
    hc32_ll_interrupts.o(i.IRQ094_Handler) refers to hc32_ll_interrupts.o(.bss) for m_apfnIrqHandler
    hc32_ll_interrupts.o(i.IRQ095_Handler) refers to hc32_ll_interrupts.o(.bss) for m_apfnIrqHandler
    hc32_ll_interrupts.o(i.IRQ096_Handler) refers to hc32_ll_interrupts.o(.bss) for m_apfnIrqHandler
    hc32_ll_interrupts.o(i.IRQ097_Handler) refers to hc32_ll_interrupts.o(.bss) for m_apfnIrqHandler
    hc32_ll_interrupts.o(i.IRQ098_Handler) refers to hc32_ll_interrupts.o(.bss) for m_apfnIrqHandler
    hc32_ll_interrupts.o(i.IRQ099_Handler) refers to hc32_ll_interrupts.o(.bss) for m_apfnIrqHandler
    hc32_ll_interrupts.o(i.IRQ100_Handler) refers to hc32_ll_interrupts.o(.bss) for m_apfnIrqHandler
    hc32_ll_interrupts.o(i.IRQ101_Handler) refers to hc32_ll_interrupts.o(.bss) for m_apfnIrqHandler
    hc32_ll_interrupts.o(i.IRQ102_Handler) refers to hc32_ll_interrupts.o(.bss) for m_apfnIrqHandler
    hc32_ll_interrupts.o(i.IRQ103_Handler) refers to hc32_ll_interrupts.o(.bss) for m_apfnIrqHandler
    hc32_ll_interrupts.o(i.IRQ104_Handler) refers to hc32_ll_interrupts.o(.bss) for m_apfnIrqHandler
    hc32_ll_interrupts.o(i.IRQ105_Handler) refers to hc32_ll_interrupts.o(.bss) for m_apfnIrqHandler
    hc32_ll_interrupts.o(i.IRQ106_Handler) refers to hc32_ll_interrupts.o(.bss) for m_apfnIrqHandler
    hc32_ll_interrupts.o(i.IRQ107_Handler) refers to hc32_ll_interrupts.o(.bss) for m_apfnIrqHandler
    hc32_ll_interrupts.o(i.IRQ108_Handler) refers to hc32_ll_interrupts.o(.bss) for m_apfnIrqHandler
    hc32_ll_interrupts.o(i.IRQ109_Handler) refers to hc32_ll_interrupts.o(.bss) for m_apfnIrqHandler
    hc32_ll_interrupts.o(i.IRQ110_Handler) refers to hc32_ll_interrupts.o(.bss) for m_apfnIrqHandler
    hc32_ll_interrupts.o(i.IRQ111_Handler) refers to hc32_ll_interrupts.o(.bss) for m_apfnIrqHandler
    hc32_ll_interrupts.o(i.IRQ112_Handler) refers to hc32_ll_interrupts.o(.bss) for m_apfnIrqHandler
    hc32_ll_interrupts.o(i.IRQ113_Handler) refers to hc32_ll_interrupts.o(.bss) for m_apfnIrqHandler
    hc32_ll_interrupts.o(i.IRQ114_Handler) refers to hc32_ll_interrupts.o(.bss) for m_apfnIrqHandler
    hc32_ll_interrupts.o(i.IRQ115_Handler) refers to hc32_ll_interrupts.o(.bss) for m_apfnIrqHandler
    hc32_ll_interrupts.o(i.IRQ116_Handler) refers to hc32_ll_interrupts.o(.bss) for m_apfnIrqHandler
    hc32_ll_interrupts.o(i.IRQ117_Handler) refers to hc32_ll_interrupts.o(.bss) for m_apfnIrqHandler
    hc32_ll_interrupts.o(i.IRQ118_Handler) refers to hc32_ll_interrupts.o(.bss) for m_apfnIrqHandler
    hc32_ll_interrupts.o(i.IRQ119_Handler) refers to hc32_ll_interrupts.o(.bss) for m_apfnIrqHandler
    hc32_ll_interrupts.o(i.IRQ120_Handler) refers to hc32_ll_interrupts.o(.bss) for m_apfnIrqHandler
    hc32_ll_interrupts.o(i.IRQ121_Handler) refers to hc32_ll_interrupts.o(.bss) for m_apfnIrqHandler
    hc32_ll_interrupts.o(i.IRQ122_Handler) refers to hc32_ll_interrupts.o(.bss) for m_apfnIrqHandler
    hc32_ll_interrupts.o(i.IRQ123_Handler) refers to hc32_ll_interrupts.o(.bss) for m_apfnIrqHandler
    hc32_ll_interrupts.o(i.IRQ124_Handler) refers to hc32_ll_interrupts.o(.bss) for m_apfnIrqHandler
    hc32_ll_interrupts.o(i.IRQ125_Handler) refers to hc32_ll_interrupts.o(.bss) for m_apfnIrqHandler
    hc32_ll_interrupts.o(i.IRQ126_Handler) refers to hc32_ll_interrupts.o(.bss) for m_apfnIrqHandler
    hc32_ll_interrupts.o(i.IRQ127_Handler) refers to hc32_ll_interrupts.o(.bss) for m_apfnIrqHandler
    hc32_ll_interrupts.o(i.NMI_ClearNmiStatus) refers to hc32_ll_utility.o(i.DDL_AssertHandler) for DDL_AssertHandler
    hc32_ll_interrupts.o(i.NMI_GetNmiStatus) refers to hc32_ll_utility.o(i.DDL_AssertHandler) for DDL_AssertHandler
    hc32_ll_interrupts.o(i.NMI_Init) refers to hc32_ll_utility.o(i.DDL_AssertHandler) for DDL_AssertHandler
    hc32_ll_interrupts.o(i.NMI_NmiSrcCmd) refers to hc32_ll_utility.o(i.DDL_AssertHandler) for DDL_AssertHandler
    hc32_ll_pwc.o(i.PWC_ClockBackup) refers to hc32_ll_utility.o(i.DDL_AssertHandler) for DDL_AssertHandler
    hc32_ll_pwc.o(i.PWC_ClockBackup) refers to hc32_ll_pwc.o(i.PWC_SetSysClk) for PWC_SetSysClk
    hc32_ll_pwc.o(i.PWC_ClockBackup) refers to hc32_ll_pwc.o(.data) for m_u8HrcState
    hc32_ll_pwc.o(i.PWC_ClockRecover) refers to hc32_ll_utility.o(i.DDL_AssertHandler) for DDL_AssertHandler
    hc32_ll_pwc.o(i.PWC_ClockRecover) refers to hc32_ll_pwc.o(i.PWC_SetSysClk) for PWC_SetSysClk
    hc32_ll_pwc.o(i.PWC_ClockRecover) refers to system_hc32f460.o(i.SystemCoreClockUpdate) for SystemCoreClockUpdate
    hc32_ll_pwc.o(i.PWC_ClockRecover) refers to hc32_ll_pwc.o(.data) for m_u8SysClockSrouce
    hc32_ll_pwc.o(i.PWC_HighPerformanceToHighSpeed) refers to hc32_ll_utility.o(i.DDL_AssertHandler) for DDL_AssertHandler
    hc32_ll_pwc.o(i.PWC_HighPerformanceToHighSpeed) refers to hc32_ll_utility.o(i.DDL_DelayUS) for DDL_DelayUS
    hc32_ll_pwc.o(i.PWC_HighPerformanceToLowSpeed) refers to hc32_ll_utility.o(i.DDL_AssertHandler) for DDL_AssertHandler
    hc32_ll_pwc.o(i.PWC_HighPerformanceToLowSpeed) refers to hc32_ll_utility.o(i.DDL_DelayUS) for DDL_DelayUS
    hc32_ll_pwc.o(i.PWC_HighSpeedToHighPerformance) refers to hc32_ll_utility.o(i.DDL_AssertHandler) for DDL_AssertHandler
    hc32_ll_pwc.o(i.PWC_HighSpeedToHighPerformance) refers to hc32_ll_utility.o(i.DDL_DelayUS) for DDL_DelayUS
    hc32_ll_pwc.o(i.PWC_HighSpeedToLowSpeed) refers to hc32_ll_utility.o(i.DDL_AssertHandler) for DDL_AssertHandler
    hc32_ll_pwc.o(i.PWC_HighSpeedToLowSpeed) refers to hc32_ll_utility.o(i.DDL_DelayUS) for DDL_DelayUS
    hc32_ll_pwc.o(i.PWC_LDO_Cmd) refers to hc32_ll_utility.o(i.DDL_AssertHandler) for DDL_AssertHandler
    hc32_ll_pwc.o(i.PWC_LVD_ClearStatus) refers to hc32_ll_utility.o(i.DDL_AssertHandler) for DDL_AssertHandler
    hc32_ll_pwc.o(i.PWC_LVD_Cmd) refers to hc32_ll_utility.o(i.DDL_AssertHandler) for DDL_AssertHandler
    hc32_ll_pwc.o(i.PWC_LVD_CompareOutputCmd) refers to hc32_ll_utility.o(i.DDL_AssertHandler) for DDL_AssertHandler
    hc32_ll_pwc.o(i.PWC_LVD_DigitalFilterCmd) refers to hc32_ll_utility.o(i.DDL_AssertHandler) for DDL_AssertHandler
    hc32_ll_pwc.o(i.PWC_LVD_ExtInputCmd) refers to hc32_ll_utility.o(i.DDL_AssertHandler) for DDL_AssertHandler
    hc32_ll_pwc.o(i.PWC_LVD_GetStatus) refers to hc32_ll_utility.o(i.DDL_AssertHandler) for DDL_AssertHandler
    hc32_ll_pwc.o(i.PWC_LVD_Init) refers to hc32_ll_utility.o(i.DDL_AssertHandler) for DDL_AssertHandler
    hc32_ll_pwc.o(i.PWC_LVD_SetFilterClock) refers to hc32_ll_utility.o(i.DDL_AssertHandler) for DDL_AssertHandler
    hc32_ll_pwc.o(i.PWC_LVD_SetThresholdVoltage) refers to hc32_ll_utility.o(i.DDL_AssertHandler) for DDL_AssertHandler
    hc32_ll_pwc.o(i.PWC_LowSpeedToHighPerformance) refers to hc32_ll_utility.o(i.DDL_AssertHandler) for DDL_AssertHandler
    hc32_ll_pwc.o(i.PWC_LowSpeedToHighPerformance) refers to hc32_ll_utility.o(i.DDL_DelayUS) for DDL_DelayUS
    hc32_ll_pwc.o(i.PWC_LowSpeedToHighSpeed) refers to hc32_ll_utility.o(i.DDL_AssertHandler) for DDL_AssertHandler
    hc32_ll_pwc.o(i.PWC_LowSpeedToHighSpeed) refers to hc32_ll_utility.o(i.DDL_DelayUS) for DDL_DelayUS
    hc32_ll_pwc.o(i.PWC_PD_ClearWakeupStatus) refers to hc32_ll_utility.o(i.DDL_AssertHandler) for DDL_AssertHandler
    hc32_ll_pwc.o(i.PWC_PD_Config) refers to hc32_ll_utility.o(i.DDL_AssertHandler) for DDL_AssertHandler
    hc32_ll_pwc.o(i.PWC_PD_GetWakeupStatus) refers to hc32_ll_utility.o(i.DDL_AssertHandler) for DDL_AssertHandler
    hc32_ll_pwc.o(i.PWC_PD_PeriphRamCmd) refers to hc32_ll_utility.o(i.DDL_AssertHandler) for DDL_AssertHandler
    hc32_ll_pwc.o(i.PWC_PD_SetWakeupTriggerEdge) refers to hc32_ll_utility.o(i.DDL_AssertHandler) for DDL_AssertHandler
    hc32_ll_pwc.o(i.PWC_PD_VdrCmd) refers to hc32_ll_utility.o(i.DDL_AssertHandler) for DDL_AssertHandler
    hc32_ll_pwc.o(i.PWC_PowerMonitorCmd) refers to hc32_ll_utility.o(i.DDL_AssertHandler) for DDL_AssertHandler
    hc32_ll_pwc.o(i.PWC_RamModeConfig) refers to hc32_ll_utility.o(i.DDL_AssertHandler) for DDL_AssertHandler
    hc32_ll_pwc.o(i.PWC_RetSram_PowerCmd) refers to hc32_ll_utility.o(i.DDL_AssertHandler) for DDL_AssertHandler
    hc32_ll_pwc.o(i.PWC_SLEEP_Enter) refers to hc32_ll_utility.o(i.DDL_AssertHandler) for DDL_AssertHandler
    hc32_ll_pwc.o(i.PWC_STOP_ClockBackup) refers to hc32_ll_pwc.o(i.PWC_ClockBackup) for PWC_ClockBackup
    hc32_ll_pwc.o(i.PWC_STOP_ClockBackup) refers to hc32_ll_pwc.o(.data) for m_u8StopFlag
    hc32_ll_pwc.o(i.PWC_STOP_ClockRecover) refers to hc32_ll_pwc.o(i.PWC_ClockRecover) for PWC_ClockRecover
    hc32_ll_pwc.o(i.PWC_STOP_ClockRecover) refers to hc32_ll_pwc.o(.data) for m_u8StopFlag
    hc32_ll_pwc.o(i.PWC_STOP_ClockSelect) refers to hc32_ll_utility.o(i.DDL_AssertHandler) for DDL_AssertHandler
    hc32_ll_pwc.o(i.PWC_STOP_Config) refers to hc32_ll_utility.o(i.DDL_AssertHandler) for DDL_AssertHandler
    hc32_ll_pwc.o(i.PWC_STOP_Enter) refers to hc32_ll_utility.o(i.DDL_AssertHandler) for DDL_AssertHandler
    hc32_ll_pwc.o(i.PWC_STOP_Enter) refers to hc32_ll_pwc.o(i.PWC_STOP_NvicBackup) for PWC_STOP_NvicBackup
    hc32_ll_pwc.o(i.PWC_STOP_Enter) refers to hc32_ll_pwc.o(i.PWC_STOP_ClockBackup) for PWC_STOP_ClockBackup
    hc32_ll_pwc.o(i.PWC_STOP_Enter) refers to hc32_ll_pwc.o(i.PWC_STOP_ClockRecover) for PWC_STOP_ClockRecover
    hc32_ll_pwc.o(i.PWC_STOP_Enter) refers to hc32_ll_pwc.o(i.PWC_STOP_NvicRecover) for PWC_STOP_NvicRecover
    hc32_ll_pwc.o(i.PWC_STOP_FlashWaitCmd) refers to hc32_ll_utility.o(i.DDL_AssertHandler) for DDL_AssertHandler
    hc32_ll_pwc.o(i.PWC_STOP_IrqClockBackup) refers to hc32_ll_pwc.o(i.PWC_ClockBackup) for PWC_ClockBackup
    hc32_ll_pwc.o(i.PWC_STOP_IrqClockBackup) refers to hc32_ll_pwc.o(.data) for m_u8StopFlag
    hc32_ll_pwc.o(i.PWC_STOP_IrqClockRecover) refers to hc32_ll_pwc.o(i.PWC_ClockRecover) for PWC_ClockRecover
    hc32_ll_pwc.o(i.PWC_STOP_IrqClockRecover) refers to hc32_ll_pwc.o(.data) for m_u8WkupIntCount
    hc32_ll_pwc.o(i.PWC_STOP_NvicBackup) refers to hc32_ll_pwc.o(i.__NVIC_DisableIRQ) for __NVIC_DisableIRQ
    hc32_ll_pwc.o(i.PWC_STOP_NvicBackup) refers to hc32_ll_pwc.o(.bss) for NVIC_ISER_BAK
    hc32_ll_pwc.o(i.PWC_STOP_NvicRecover) refers to hc32_ll_pwc.o(.bss) for NVIC_ISER_BAK
    hc32_ll_pwc.o(i.PWC_STOP_SetDrv) refers to hc32_ll_utility.o(i.DDL_AssertHandler) for DDL_AssertHandler
    hc32_ll_pwc.o(i.PWC_SetSysClk) refers to hc32_ll_utility.o(i.DDL_AssertHandler) for DDL_AssertHandler
    hc32_ll_pwc.o(i.PWC_SetSysClk) refers to hc32_ll_utility.o(i.DDL_DelayUS) for DDL_DelayUS
    hc32_ll_pwc.o(i.PWC_SetSysClk) refers to system_hc32f460.o(i.SystemCoreClockUpdate) for SystemCoreClockUpdate
    hc32_ll_pwc.o(i.PWC_WKT_ClearStatus) refers to hc32_ll_utility.o(i.DDL_AssertHandler) for DDL_AssertHandler
    hc32_ll_pwc.o(i.PWC_WKT_Cmd) refers to hc32_ll_utility.o(i.DDL_AssertHandler) for DDL_AssertHandler
    hc32_ll_pwc.o(i.PWC_WKT_Config) refers to hc32_ll_utility.o(i.DDL_AssertHandler) for DDL_AssertHandler
    hc32_ll_pwc.o(i.PWC_WKT_SetCompareValue) refers to hc32_ll_utility.o(i.DDL_AssertHandler) for DDL_AssertHandler
    hc32_ll_pwc.o(i.PWC_XTAL32_PowerCmd) refers to hc32_ll_utility.o(i.DDL_AssertHandler) for DDL_AssertHandler
    hc32_ll_sram.o(i.SRAM_ClearStatus) refers to hc32_ll_utility.o(i.DDL_AssertHandler) for DDL_AssertHandler
    hc32_ll_sram.o(i.SRAM_DeInit) refers to hc32_ll_utility.o(i.DDL_AssertHandler) for DDL_AssertHandler
    hc32_ll_sram.o(i.SRAM_GetStatus) refers to hc32_ll_utility.o(i.DDL_AssertHandler) for DDL_AssertHandler
    hc32_ll_sram.o(i.SRAM_SetEccMode) refers to hc32_ll_utility.o(i.DDL_AssertHandler) for DDL_AssertHandler
    hc32_ll_sram.o(i.SRAM_SetErrorMode) refers to hc32_ll_utility.o(i.DDL_AssertHandler) for DDL_AssertHandler
    hc32_ll_sram.o(i.SRAM_SetWaitCycle) refers to hc32_ll_utility.o(i.DDL_AssertHandler) for DDL_AssertHandler
    hc32_ll_usart.o(i.ClockSync_CalculateBrr) refers to hc32_ll_utility.o(i.DDL_AssertHandler) for DDL_AssertHandler
    hc32_ll_usart.o(i.ClockSync_CalculateBrr) refers to uldiv.o(.text) for __aeabi_uldivmod
    hc32_ll_usart.o(i.ClockSync_CalculateBrr) refers to dfltul.o(.text) for __aeabi_ul2d
    hc32_ll_usart.o(i.ClockSync_CalculateBrr) refers to ddiv.o(.text) for __aeabi_ddiv
    hc32_ll_usart.o(i.ClockSync_CalculateBrr) refers to d2f.o(.text) for __aeabi_d2f
    hc32_ll_usart.o(i.ClockSync_CalculateBrr) refers to dfltui.o(.text) for __aeabi_ui2d
    hc32_ll_usart.o(i.SmartCard_CalculateBrr) refers to hc32_ll_utility.o(i.DDL_AssertHandler) for DDL_AssertHandler
    hc32_ll_usart.o(i.SmartCard_CalculateBrr) refers to uldiv.o(.text) for __aeabi_uldivmod
    hc32_ll_usart.o(i.SmartCard_CalculateBrr) refers to dfltul.o(.text) for __aeabi_ul2d
    hc32_ll_usart.o(i.SmartCard_CalculateBrr) refers to ddiv.o(.text) for __aeabi_ddiv
    hc32_ll_usart.o(i.SmartCard_CalculateBrr) refers to d2f.o(.text) for __aeabi_d2f
    hc32_ll_usart.o(i.SmartCard_CalculateBrr) refers to dfltui.o(.text) for __aeabi_ui2d
    hc32_ll_usart.o(i.SmartCard_CalculateBrr) refers to hc32_ll_usart.o(.constdata) for .constdata
    hc32_ll_usart.o(i.UART_CalculateBrr) refers to hc32_ll_utility.o(i.DDL_AssertHandler) for DDL_AssertHandler
    hc32_ll_usart.o(i.UART_CalculateBrr) refers to uldiv.o(.text) for __aeabi_uldivmod
    hc32_ll_usart.o(i.UART_CalculateBrr) refers to dfltul.o(.text) for __aeabi_ul2d
    hc32_ll_usart.o(i.UART_CalculateBrr) refers to ddiv.o(.text) for __aeabi_ddiv
    hc32_ll_usart.o(i.UART_CalculateBrr) refers to d2f.o(.text) for __aeabi_d2f
    hc32_ll_usart.o(i.UART_CalculateBrr) refers to dfltui.o(.text) for __aeabi_ui2d
    hc32_ll_usart.o(i.USART_ClearStatus) refers to hc32_ll_utility.o(i.DDL_AssertHandler) for DDL_AssertHandler
    hc32_ll_usart.o(i.USART_ClockSync_Init) refers to hc32_ll_utility.o(i.DDL_AssertHandler) for DDL_AssertHandler
    hc32_ll_usart.o(i.USART_ClockSync_Init) refers to hc32_ll_usart.o(i.USART_SetBaudrate) for USART_SetBaudrate
    hc32_ll_usart.o(i.USART_ClockSync_Receive) refers to hc32_ll_utility.o(i.DDL_AssertHandler) for DDL_AssertHandler
    hc32_ll_usart.o(i.USART_ClockSync_Receive) refers to hc32_ll_usart.o(i.USART_WriteData) for USART_WriteData
    hc32_ll_usart.o(i.USART_ClockSync_Receive) refers to hc32_ll_usart.o(i.USART_WaitStatus) for USART_WaitStatus
    hc32_ll_usart.o(i.USART_ClockSync_Receive) refers to hc32_ll_usart.o(i.USART_ReadData) for USART_ReadData
    hc32_ll_usart.o(i.USART_ClockSync_Trans) refers to hc32_ll_utility.o(i.DDL_AssertHandler) for DDL_AssertHandler
    hc32_ll_usart.o(i.USART_ClockSync_Trans) refers to hc32_ll_usart.o(i.USART_WaitStatus) for USART_WaitStatus
    hc32_ll_usart.o(i.USART_ClockSync_Trans) refers to hc32_ll_usart.o(i.USART_WriteData) for USART_WriteData
    hc32_ll_usart.o(i.USART_ClockSync_Trans) refers to hc32_ll_usart.o(i.USART_ReadData) for USART_ReadData
    hc32_ll_usart.o(i.USART_ClockSync_TransReceive) refers to hc32_ll_utility.o(i.DDL_AssertHandler) for DDL_AssertHandler
    hc32_ll_usart.o(i.USART_ClockSync_TransReceive) refers to hc32_ll_usart.o(i.USART_WriteData) for USART_WriteData
    hc32_ll_usart.o(i.USART_ClockSync_TransReceive) refers to hc32_ll_usart.o(i.USART_WaitStatus) for USART_WaitStatus
    hc32_ll_usart.o(i.USART_ClockSync_TransReceive) refers to hc32_ll_usart.o(i.USART_ReadData) for USART_ReadData
    hc32_ll_usart.o(i.USART_DeInit) refers to hc32_ll_utility.o(i.DDL_AssertHandler) for DDL_AssertHandler
    hc32_ll_usart.o(i.USART_FilterCmd) refers to hc32_ll_utility.o(i.DDL_AssertHandler) for DDL_AssertHandler
    hc32_ll_usart.o(i.USART_FuncCmd) refers to hc32_ll_utility.o(i.DDL_AssertHandler) for DDL_AssertHandler
    hc32_ll_usart.o(i.USART_GetBusClockFreq) refers to system_hc32f460.o(.data) for SystemCoreClock
    hc32_ll_usart.o(i.USART_GetClockDiv) refers to hc32_ll_utility.o(i.DDL_AssertHandler) for DDL_AssertHandler
    hc32_ll_usart.o(i.USART_GetClockSrc) refers to hc32_ll_utility.o(i.DDL_AssertHandler) for DDL_AssertHandler
    hc32_ll_usart.o(i.USART_GetStatus) refers to hc32_ll_utility.o(i.DDL_AssertHandler) for DDL_AssertHandler
    hc32_ll_usart.o(i.USART_GetUsartClockFreq) refers to hc32_ll_utility.o(i.DDL_AssertHandler) for DDL_AssertHandler
    hc32_ll_usart.o(i.USART_GetUsartClockFreq) refers to hc32_ll_usart.o(i.USART_GetBusClockFreq) for USART_GetBusClockFreq
    hc32_ll_usart.o(i.USART_MultiProcessor_Init) refers to hc32_ll_utility.o(i.DDL_AssertHandler) for DDL_AssertHandler
    hc32_ll_usart.o(i.USART_MultiProcessor_Init) refers to hc32_ll_usart.o(i.USART_SetBaudrate) for USART_SetBaudrate
    hc32_ll_usart.o(i.USART_ReadData) refers to hc32_ll_utility.o(i.DDL_AssertHandler) for DDL_AssertHandler
    hc32_ll_usart.o(i.USART_SetBaudrate) refers to hc32_ll_utility.o(i.DDL_AssertHandler) for DDL_AssertHandler
    hc32_ll_usart.o(i.USART_SetBaudrate) refers to hc32_ll_usart.o(i.USART_GetUsartClockFreq) for USART_GetUsartClockFreq
    hc32_ll_usart.o(i.USART_SetBaudrate) refers to hc32_ll_usart.o(i.UART_CalculateBrr) for UART_CalculateBrr
    hc32_ll_usart.o(i.USART_SetBaudrate) refers to hc32_ll_usart.o(i.SmartCard_CalculateBrr) for SmartCard_CalculateBrr
    hc32_ll_usart.o(i.USART_SetBaudrate) refers to hc32_ll_usart.o(i.ClockSync_CalculateBrr) for ClockSync_CalculateBrr
    hc32_ll_usart.o(i.USART_SetClockDiv) refers to hc32_ll_utility.o(i.DDL_AssertHandler) for DDL_AssertHandler
    hc32_ll_usart.o(i.USART_SetClockSrc) refers to hc32_ll_utility.o(i.DDL_AssertHandler) for DDL_AssertHandler
    hc32_ll_usart.o(i.USART_SetDataWidth) refers to hc32_ll_utility.o(i.DDL_AssertHandler) for DDL_AssertHandler
    hc32_ll_usart.o(i.USART_SetFirstBit) refers to hc32_ll_utility.o(i.DDL_AssertHandler) for DDL_AssertHandler
    hc32_ll_usart.o(i.USART_SetHWFlowControl) refers to hc32_ll_utility.o(i.DDL_AssertHandler) for DDL_AssertHandler
    hc32_ll_usart.o(i.USART_SetOverSampleBit) refers to hc32_ll_utility.o(i.DDL_AssertHandler) for DDL_AssertHandler
    hc32_ll_usart.o(i.USART_SetParity) refers to hc32_ll_utility.o(i.DDL_AssertHandler) for DDL_AssertHandler
    hc32_ll_usart.o(i.USART_SetStartBitPolarity) refers to hc32_ll_utility.o(i.DDL_AssertHandler) for DDL_AssertHandler
    hc32_ll_usart.o(i.USART_SetStopBit) refers to hc32_ll_utility.o(i.DDL_AssertHandler) for DDL_AssertHandler
    hc32_ll_usart.o(i.USART_SetTransType) refers to hc32_ll_utility.o(i.DDL_AssertHandler) for DDL_AssertHandler
    hc32_ll_usart.o(i.USART_SilenceCmd) refers to hc32_ll_utility.o(i.DDL_AssertHandler) for DDL_AssertHandler
    hc32_ll_usart.o(i.USART_SmartCard_Init) refers to hc32_ll_utility.o(i.DDL_AssertHandler) for DDL_AssertHandler
    hc32_ll_usart.o(i.USART_SmartCard_Init) refers to hc32_ll_usart.o(i.USART_SetBaudrate) for USART_SetBaudrate
    hc32_ll_usart.o(i.USART_SmartCard_SetEtuClock) refers to hc32_ll_utility.o(i.DDL_AssertHandler) for DDL_AssertHandler
    hc32_ll_usart.o(i.USART_UART_Init) refers to hc32_ll_utility.o(i.DDL_AssertHandler) for DDL_AssertHandler
    hc32_ll_usart.o(i.USART_UART_Init) refers to hc32_ll_usart.o(i.USART_SetBaudrate) for USART_SetBaudrate
    hc32_ll_usart.o(i.USART_UART_Receive) refers to hc32_ll_utility.o(i.DDL_AssertHandler) for DDL_AssertHandler
    hc32_ll_usart.o(i.USART_UART_Receive) refers to hc32_ll_usart.o(i.USART_WaitStatus) for USART_WaitStatus
    hc32_ll_usart.o(i.USART_UART_Receive) refers to hc32_ll_usart.o(i.USART_ReadData) for USART_ReadData
    hc32_ll_usart.o(i.USART_UART_Trans) refers to hc32_ll_utility.o(i.DDL_AssertHandler) for DDL_AssertHandler
    hc32_ll_usart.o(i.USART_UART_Trans) refers to hc32_ll_usart.o(i.USART_WaitStatus) for USART_WaitStatus
    hc32_ll_usart.o(i.USART_UART_Trans) refers to hc32_ll_usart.o(i.USART_WriteData) for USART_WriteData
    hc32_ll_usart.o(i.USART_WaitStatus) refers to hc32_ll_utility.o(i.DDL_AssertHandler) for DDL_AssertHandler
    hc32_ll_usart.o(i.USART_WaitStatus) refers to hc32_ll_usart.o(i.USART_GetStatus) for USART_GetStatus
    hc32_ll_usart.o(i.USART_WriteData) refers to hc32_ll_utility.o(i.DDL_AssertHandler) for DDL_AssertHandler
    hc32_ll_usart.o(i.USART_WriteID) refers to hc32_ll_utility.o(i.DDL_AssertHandler) for DDL_AssertHandler
    hc32_ll_utility.o(i.DDL_AssertHandler) refers to printf8.o(i.__0printf$8) for __2printf
    hc32_ll_utility.o(i.DDL_ConsoleOutputChar) refers to hc32_ll_utility.o(.data) for m_u32PrintTimeout
    hc32_ll_utility.o(i.DDL_DelayMS) refers to system_hc32f460.o(.data) for SystemCoreClock
    hc32_ll_utility.o(i.DDL_DelayUS) refers to system_hc32f460.o(.data) for SystemCoreClock
    hc32_ll_utility.o(i.LL_PrintfInit) refers to hc32_ll_utility.o(i.DDL_AssertHandler) for DDL_AssertHandler
    hc32_ll_utility.o(i.LL_PrintfInit) refers to hc32_ll_utility.o(.data) for m_pvPrintDevice
    hc32_ll_utility.o(i.LL_PrintfInit) refers to system_hc32f460.o(.data) for SystemCoreClock
    hc32_ll_utility.o(i.SysTick_Delay) refers to hc32_ll_utility.o(i.SysTick_GetTick) for SysTick_GetTick
    hc32_ll_utility.o(i.SysTick_Delay) refers to hc32_ll_utility.o(.data) for m_u32TickStep
    hc32_ll_utility.o(i.SysTick_GetTick) refers to hc32_ll_utility.o(.data) for m_u32TickCount
    hc32_ll_utility.o(i.SysTick_IncTick) refers to hc32_ll_utility.o(.data) for m_u32TickCount
    hc32_ll_utility.o(i.SysTick_Init) refers to hc32_ll_utility.o(.data) for m_u32TickStep
    hc32_ll_utility.o(i.SysTick_Init) refers to system_hc32f460.o(.data) for SystemCoreClock
    hc32_ll_utility.o(i.fputc) refers to hc32_ll_utility.o(i.DDL_ConsoleOutputChar) for DDL_ConsoleOutputChar
    hc32_ll_fcg.o(i.FCG_Fcg0PeriphClockCmd) refers to hc32_ll_utility.o(i.DDL_AssertHandler) for DDL_AssertHandler
    hc32_ll_fcg.o(i.FCG_Fcg1PeriphClockCmd) refers to hc32_ll_utility.o(i.DDL_AssertHandler) for DDL_AssertHandler
    hc32_ll_fcg.o(i.FCG_Fcg2PeriphClockCmd) refers to hc32_ll_utility.o(i.DDL_AssertHandler) for DDL_AssertHandler
    hc32_ll_fcg.o(i.FCG_Fcg3PeriphClockCmd) refers to hc32_ll_utility.o(i.DDL_AssertHandler) for DDL_AssertHandler
    hc32_ll_tmr0.o(i.TMR0_ClearStatus) refers to hc32_ll_utility.o(i.DDL_AssertHandler) for DDL_AssertHandler
    hc32_ll_tmr0.o(i.TMR0_DeInit) refers to hc32_ll_utility.o(i.DDL_AssertHandler) for DDL_AssertHandler
    hc32_ll_tmr0.o(i.TMR0_GetCompareValue) refers to hc32_ll_utility.o(i.DDL_AssertHandler) for DDL_AssertHandler
    hc32_ll_tmr0.o(i.TMR0_GetCountValue) refers to hc32_ll_utility.o(i.DDL_AssertHandler) for DDL_AssertHandler
    hc32_ll_tmr0.o(i.TMR0_GetStatus) refers to hc32_ll_utility.o(i.DDL_AssertHandler) for DDL_AssertHandler
    hc32_ll_tmr0.o(i.TMR0_HWCaptureCondCmd) refers to hc32_ll_utility.o(i.DDL_AssertHandler) for DDL_AssertHandler
    hc32_ll_tmr0.o(i.TMR0_HWClearCondCmd) refers to hc32_ll_utility.o(i.DDL_AssertHandler) for DDL_AssertHandler
    hc32_ll_tmr0.o(i.TMR0_HWStartCondCmd) refers to hc32_ll_utility.o(i.DDL_AssertHandler) for DDL_AssertHandler
    hc32_ll_tmr0.o(i.TMR0_HWStopCondCmd) refers to hc32_ll_utility.o(i.DDL_AssertHandler) for DDL_AssertHandler
    hc32_ll_tmr0.o(i.TMR0_Init) refers to hc32_ll_utility.o(i.DDL_AssertHandler) for DDL_AssertHandler
    hc32_ll_tmr0.o(i.TMR0_IntCmd) refers to hc32_ll_utility.o(i.DDL_AssertHandler) for DDL_AssertHandler
    hc32_ll_tmr0.o(i.TMR0_SetClockDiv) refers to hc32_ll_utility.o(i.DDL_AssertHandler) for DDL_AssertHandler
    hc32_ll_tmr0.o(i.TMR0_SetClockSrc) refers to hc32_ll_utility.o(i.DDL_AssertHandler) for DDL_AssertHandler
    hc32_ll_tmr0.o(i.TMR0_SetCompareValue) refers to hc32_ll_utility.o(i.DDL_AssertHandler) for DDL_AssertHandler
    hc32_ll_tmr0.o(i.TMR0_SetCountValue) refers to hc32_ll_utility.o(i.DDL_AssertHandler) for DDL_AssertHandler
    hc32_ll_tmr0.o(i.TMR0_SetFunc) refers to hc32_ll_utility.o(i.DDL_AssertHandler) for DDL_AssertHandler
    hc32_ll_tmr0.o(i.TMR0_Start) refers to hc32_ll_utility.o(i.DDL_AssertHandler) for DDL_AssertHandler
    hc32_ll_tmr0.o(i.TMR0_Stop) refers to hc32_ll_utility.o(i.DDL_AssertHandler) for DDL_AssertHandler
    hc32_ll_i2c.o(i.I2C_AckConfig) refers to hc32_ll_utility.o(i.DDL_AssertHandler) for DDL_AssertHandler
    hc32_ll_i2c.o(i.I2C_AnalogFilterCmd) refers to hc32_ll_utility.o(i.DDL_AssertHandler) for DDL_AssertHandler
    hc32_ll_i2c.o(i.I2C_BaudrateConfig) refers to hc32_ll_utility.o(i.DDL_AssertHandler) for DDL_AssertHandler
    hc32_ll_i2c.o(i.I2C_BaudrateConfig) refers to system_hc32f460.o(.data) for SystemCoreClock
    hc32_ll_i2c.o(i.I2C_BusWaitCmd) refers to hc32_ll_utility.o(i.DDL_AssertHandler) for DDL_AssertHandler
    hc32_ll_i2c.o(i.I2C_ClearStatus) refers to hc32_ll_utility.o(i.DDL_AssertHandler) for DDL_AssertHandler
    hc32_ll_i2c.o(i.I2C_Cmd) refers to hc32_ll_utility.o(i.DDL_AssertHandler) for DDL_AssertHandler
    hc32_ll_i2c.o(i.I2C_DeInit) refers to hc32_ll_utility.o(i.DDL_AssertHandler) for DDL_AssertHandler
    hc32_ll_i2c.o(i.I2C_DigitalFilterCmd) refers to hc32_ll_utility.o(i.DDL_AssertHandler) for DDL_AssertHandler
    hc32_ll_i2c.o(i.I2C_DigitalFilterConfig) refers to hc32_ll_utility.o(i.DDL_AssertHandler) for DDL_AssertHandler
    hc32_ll_i2c.o(i.I2C_FastAckCmd) refers to hc32_ll_utility.o(i.DDL_AssertHandler) for DDL_AssertHandler
    hc32_ll_i2c.o(i.I2C_GeneralCallCmd) refers to hc32_ll_utility.o(i.DDL_AssertHandler) for DDL_AssertHandler
    hc32_ll_i2c.o(i.I2C_GenerateRestart) refers to hc32_ll_utility.o(i.DDL_AssertHandler) for DDL_AssertHandler
    hc32_ll_i2c.o(i.I2C_GenerateStart) refers to hc32_ll_utility.o(i.DDL_AssertHandler) for DDL_AssertHandler
    hc32_ll_i2c.o(i.I2C_GenerateStop) refers to hc32_ll_utility.o(i.DDL_AssertHandler) for DDL_AssertHandler
    hc32_ll_i2c.o(i.I2C_GetStatus) refers to hc32_ll_utility.o(i.DDL_AssertHandler) for DDL_AssertHandler
    hc32_ll_i2c.o(i.I2C_Init) refers to hc32_ll_utility.o(i.DDL_AssertHandler) for DDL_AssertHandler
    hc32_ll_i2c.o(i.I2C_Init) refers to hc32_ll_i2c.o(i.I2C_BaudrateConfig) for I2C_BaudrateConfig
    hc32_ll_i2c.o(i.I2C_IntCmd) refers to hc32_ll_utility.o(i.DDL_AssertHandler) for DDL_AssertHandler
    hc32_ll_i2c.o(i.I2C_MasterReceiveDataAndStop) refers to hc32_ll_utility.o(i.DDL_AssertHandler) for DDL_AssertHandler
    hc32_ll_i2c.o(i.I2C_MasterReceiveDataAndStop) refers to hc32_ll_i2c.o(i.I2C_WaitStatus) for I2C_WaitStatus
    hc32_ll_i2c.o(i.I2C_MasterReceiveDataAndStop) refers to hc32_ll_i2c.o(i.I2C_AckConfig) for I2C_AckConfig
    hc32_ll_i2c.o(i.I2C_MasterReceiveDataAndStop) refers to hc32_ll_i2c.o(i.I2C_ClearStatus) for I2C_ClearStatus
    hc32_ll_i2c.o(i.I2C_MasterReceiveDataAndStop) refers to hc32_ll_i2c.o(i.I2C_GenerateStop) for I2C_GenerateStop
    hc32_ll_i2c.o(i.I2C_MasterReceiveDataAndStop) refers to hc32_ll_i2c.o(i.I2C_ReadData) for I2C_ReadData
    hc32_ll_i2c.o(i.I2C_ReadData) refers to hc32_ll_utility.o(i.DDL_AssertHandler) for DDL_AssertHandler
    hc32_ll_i2c.o(i.I2C_ReceiveData) refers to hc32_ll_utility.o(i.DDL_AssertHandler) for DDL_AssertHandler
    hc32_ll_i2c.o(i.I2C_ReceiveData) refers to hc32_ll_i2c.o(i.I2C_WaitStatus) for I2C_WaitStatus
    hc32_ll_i2c.o(i.I2C_ReceiveData) refers to hc32_ll_i2c.o(i.I2C_AckConfig) for I2C_AckConfig
    hc32_ll_i2c.o(i.I2C_ReceiveData) refers to hc32_ll_i2c.o(i.I2C_ReadData) for I2C_ReadData
    hc32_ll_i2c.o(i.I2C_Restart) refers to hc32_ll_utility.o(i.DDL_AssertHandler) for DDL_AssertHandler
    hc32_ll_i2c.o(i.I2C_Restart) refers to hc32_ll_i2c.o(i.I2C_ClearStatus) for I2C_ClearStatus
    hc32_ll_i2c.o(i.I2C_Restart) refers to hc32_ll_i2c.o(i.I2C_GenerateRestart) for I2C_GenerateRestart
    hc32_ll_i2c.o(i.I2C_Restart) refers to hc32_ll_i2c.o(i.I2C_WaitStatus) for I2C_WaitStatus
    hc32_ll_i2c.o(i.I2C_SCLHighTimeoutCmd) refers to hc32_ll_utility.o(i.DDL_AssertHandler) for DDL_AssertHandler
    hc32_ll_i2c.o(i.I2C_SCLHighTimeoutConfig) refers to hc32_ll_utility.o(i.DDL_AssertHandler) for DDL_AssertHandler
    hc32_ll_i2c.o(i.I2C_SCLLowTimeoutCmd) refers to hc32_ll_utility.o(i.DDL_AssertHandler) for DDL_AssertHandler
    hc32_ll_i2c.o(i.I2C_SCLLowTimeoutConfig) refers to hc32_ll_utility.o(i.DDL_AssertHandler) for DDL_AssertHandler
    hc32_ll_i2c.o(i.I2C_SCLTimeoutCmd) refers to hc32_ll_utility.o(i.DDL_AssertHandler) for DDL_AssertHandler
    hc32_ll_i2c.o(i.I2C_SWResetCmd) refers to hc32_ll_utility.o(i.DDL_AssertHandler) for DDL_AssertHandler
    hc32_ll_i2c.o(i.I2C_SlaveAddrCmd) refers to hc32_ll_utility.o(i.DDL_AssertHandler) for DDL_AssertHandler
    hc32_ll_i2c.o(i.I2C_SlaveAddrConfig) refers to hc32_ll_utility.o(i.DDL_AssertHandler) for DDL_AssertHandler
    hc32_ll_i2c.o(i.I2C_SmbusCmd) refers to hc32_ll_utility.o(i.DDL_AssertHandler) for DDL_AssertHandler
    hc32_ll_i2c.o(i.I2C_SmbusConfig) refers to hc32_ll_utility.o(i.DDL_AssertHandler) for DDL_AssertHandler
    hc32_ll_i2c.o(i.I2C_Start) refers to hc32_ll_utility.o(i.DDL_AssertHandler) for DDL_AssertHandler
    hc32_ll_i2c.o(i.I2C_Start) refers to hc32_ll_i2c.o(i.I2C_WaitStatus) for I2C_WaitStatus
    hc32_ll_i2c.o(i.I2C_Start) refers to hc32_ll_i2c.o(i.I2C_GenerateStart) for I2C_GenerateStart
    hc32_ll_i2c.o(i.I2C_Stop) refers to hc32_ll_utility.o(i.DDL_AssertHandler) for DDL_AssertHandler
    hc32_ll_i2c.o(i.I2C_Stop) refers to hc32_ll_i2c.o(i.I2C_ClearStatus) for I2C_ClearStatus
    hc32_ll_i2c.o(i.I2C_Stop) refers to hc32_ll_i2c.o(i.I2C_GetStatus) for I2C_GetStatus
    hc32_ll_i2c.o(i.I2C_Stop) refers to hc32_ll_i2c.o(i.I2C_GenerateStop) for I2C_GenerateStop
    hc32_ll_i2c.o(i.I2C_Stop) refers to hc32_ll_i2c.o(i.I2C_WaitStatus) for I2C_WaitStatus
    hc32_ll_i2c.o(i.I2C_Trans10BitAddr) refers to hc32_ll_utility.o(i.DDL_AssertHandler) for DDL_AssertHandler
    hc32_ll_i2c.o(i.I2C_Trans10BitAddr) refers to hc32_ll_i2c.o(i.I2C_WaitStatus) for I2C_WaitStatus
    hc32_ll_i2c.o(i.I2C_Trans10BitAddr) refers to hc32_ll_i2c.o(i.I2C_WriteData) for I2C_WriteData
    hc32_ll_i2c.o(i.I2C_Trans10BitAddr) refers to hc32_ll_i2c.o(i.I2C_GetStatus) for I2C_GetStatus
    hc32_ll_i2c.o(i.I2C_Trans10BitAddr) refers to hc32_ll_i2c.o(i.I2C_ClearStatus) for I2C_ClearStatus
    hc32_ll_i2c.o(i.I2C_Trans10BitAddr) refers to hc32_ll_i2c.o(i.I2C_GenerateRestart) for I2C_GenerateRestart
    hc32_ll_i2c.o(i.I2C_TransAddr) refers to hc32_ll_utility.o(i.DDL_AssertHandler) for DDL_AssertHandler
    hc32_ll_i2c.o(i.I2C_TransAddr) refers to hc32_ll_i2c.o(i.I2C_WaitStatus) for I2C_WaitStatus
    hc32_ll_i2c.o(i.I2C_TransAddr) refers to hc32_ll_i2c.o(i.I2C_WriteData) for I2C_WriteData
    hc32_ll_i2c.o(i.I2C_TransAddr) refers to hc32_ll_i2c.o(i.I2C_GetStatus) for I2C_GetStatus
    hc32_ll_i2c.o(i.I2C_TransData) refers to hc32_ll_utility.o(i.DDL_AssertHandler) for DDL_AssertHandler
    hc32_ll_i2c.o(i.I2C_TransData) refers to hc32_ll_i2c.o(i.I2C_WaitStatus) for I2C_WaitStatus
    hc32_ll_i2c.o(i.I2C_TransData) refers to hc32_ll_i2c.o(i.I2C_WriteData) for I2C_WriteData
    hc32_ll_i2c.o(i.I2C_TransData) refers to hc32_ll_i2c.o(i.I2C_GetStatus) for I2C_GetStatus
    hc32_ll_i2c.o(i.I2C_TransData) refers to hc32_ll_utility.o(i.DDL_DelayUS) for DDL_DelayUS
    hc32_ll_i2c.o(i.I2C_WaitStatus) refers to hc32_ll_utility.o(i.DDL_AssertHandler) for DDL_AssertHandler
    hc32_ll_i2c.o(i.I2C_WriteData) refers to hc32_ll_utility.o(i.DDL_AssertHandler) for DDL_AssertHandler
    hc32_ll_fcm.o(i.FCM_ClearStatus) refers to hc32_ll_utility.o(i.DDL_AssertHandler) for DDL_AssertHandler
    hc32_ll_fcm.o(i.FCM_Cmd) refers to hc32_ll_utility.o(i.DDL_AssertHandler) for DDL_AssertHandler
    hc32_ll_fcm.o(i.FCM_GetStatus) refers to hc32_ll_utility.o(i.DDL_AssertHandler) for DDL_AssertHandler
    hc32_ll_fcm.o(i.FCM_Init) refers to hc32_ll_utility.o(i.DDL_AssertHandler) for DDL_AssertHandler
    hc32_ll_fcm.o(i.FCM_IntCmd) refers to hc32_ll_utility.o(i.DDL_AssertHandler) for DDL_AssertHandler
    hc32_ll_fcm.o(i.FCM_ResetCmd) refers to hc32_ll_utility.o(i.DDL_AssertHandler) for DDL_AssertHandler
    hc32_ll_fcm.o(i.FCM_SetRefClock) refers to hc32_ll_utility.o(i.DDL_AssertHandler) for DDL_AssertHandler
    hc32_ll_fcm.o(i.FCM_SetTargetClock) refers to hc32_ll_utility.o(i.DDL_AssertHandler) for DDL_AssertHandler
    hc32_ll_aos.o(i.AOS_CommonTriggerCmd) refers to hc32_ll_utility.o(i.DDL_AssertHandler) for DDL_AssertHandler
    hc32_ll_aos.o(i.AOS_SetTriggerEventSrc) refers to hc32_ll_utility.o(i.DDL_AssertHandler) for DDL_AssertHandler
    hc32_ll_dma.o(i.DMA_ChCmd) refers to hc32_ll_utility.o(i.DDL_AssertHandler) for DDL_AssertHandler
    hc32_ll_dma.o(i.DMA_ChCmd) refers to hc32_ll_dma.o(.data) for u8DmaChEnState
    hc32_ll_dma.o(i.DMA_ClearErrStatus) refers to hc32_ll_utility.o(i.DDL_AssertHandler) for DDL_AssertHandler
    hc32_ll_dma.o(i.DMA_ClearTransCompleteStatus) refers to hc32_ll_utility.o(i.DDL_AssertHandler) for DDL_AssertHandler
    hc32_ll_dma.o(i.DMA_Cmd) refers to hc32_ll_utility.o(i.DDL_AssertHandler) for DDL_AssertHandler
    hc32_ll_dma.o(i.DMA_DeInit) refers to hc32_ll_utility.o(i.DDL_AssertHandler) for DDL_AssertHandler
    hc32_ll_dma.o(i.DMA_ErrIntCmd) refers to hc32_ll_utility.o(i.DDL_AssertHandler) for DDL_AssertHandler
    hc32_ll_dma.o(i.DMA_GetBlockSize) refers to hc32_ll_utility.o(i.DDL_AssertHandler) for DDL_AssertHandler
    hc32_ll_dma.o(i.DMA_GetDestAddr) refers to hc32_ll_utility.o(i.DDL_AssertHandler) for DDL_AssertHandler
    hc32_ll_dma.o(i.DMA_GetDestRepeatSize) refers to hc32_ll_utility.o(i.DDL_AssertHandler) for DDL_AssertHandler
    hc32_ll_dma.o(i.DMA_GetErrStatus) refers to hc32_ll_utility.o(i.DDL_AssertHandler) for DDL_AssertHandler
    hc32_ll_dma.o(i.DMA_GetNonSeqDestCount) refers to hc32_ll_utility.o(i.DDL_AssertHandler) for DDL_AssertHandler
    hc32_ll_dma.o(i.DMA_GetNonSeqDestOffset) refers to hc32_ll_utility.o(i.DDL_AssertHandler) for DDL_AssertHandler
    hc32_ll_dma.o(i.DMA_GetNonSeqSrcCount) refers to hc32_ll_utility.o(i.DDL_AssertHandler) for DDL_AssertHandler
    hc32_ll_dma.o(i.DMA_GetNonSeqSrcOffset) refers to hc32_ll_utility.o(i.DDL_AssertHandler) for DDL_AssertHandler
    hc32_ll_dma.o(i.DMA_GetRequestStatus) refers to hc32_ll_utility.o(i.DDL_AssertHandler) for DDL_AssertHandler
    hc32_ll_dma.o(i.DMA_GetSrcAddr) refers to hc32_ll_utility.o(i.DDL_AssertHandler) for DDL_AssertHandler
    hc32_ll_dma.o(i.DMA_GetSrcRepeatSize) refers to hc32_ll_utility.o(i.DDL_AssertHandler) for DDL_AssertHandler
    hc32_ll_dma.o(i.DMA_GetTransCompleteStatus) refers to hc32_ll_utility.o(i.DDL_AssertHandler) for DDL_AssertHandler
    hc32_ll_dma.o(i.DMA_GetTransCount) refers to hc32_ll_utility.o(i.DDL_AssertHandler) for DDL_AssertHandler
    hc32_ll_dma.o(i.DMA_GetTransStatus) refers to hc32_ll_utility.o(i.DDL_AssertHandler) for DDL_AssertHandler
    hc32_ll_dma.o(i.DMA_Init) refers to hc32_ll_utility.o(i.DDL_AssertHandler) for DDL_AssertHandler
    hc32_ll_dma.o(i.DMA_LlpCmd) refers to hc32_ll_utility.o(i.DDL_AssertHandler) for DDL_AssertHandler
    hc32_ll_dma.o(i.DMA_LlpInit) refers to hc32_ll_utility.o(i.DDL_AssertHandler) for DDL_AssertHandler
    hc32_ll_dma.o(i.DMA_NonSeqInit) refers to hc32_ll_utility.o(i.DDL_AssertHandler) for DDL_AssertHandler
    hc32_ll_dma.o(i.DMA_ReconfigCmd) refers to hc32_ll_utility.o(i.DDL_AssertHandler) for DDL_AssertHandler
    hc32_ll_dma.o(i.DMA_ReconfigInit) refers to hc32_ll_utility.o(i.DDL_AssertHandler) for DDL_AssertHandler
    hc32_ll_dma.o(i.DMA_ReconfigLlpCmd) refers to hc32_ll_utility.o(i.DDL_AssertHandler) for DDL_AssertHandler
    hc32_ll_dma.o(i.DMA_RepeatInit) refers to hc32_ll_utility.o(i.DDL_AssertHandler) for DDL_AssertHandler
    hc32_ll_dma.o(i.DMA_SetBlockSize) refers to hc32_ll_utility.o(i.DDL_AssertHandler) for DDL_AssertHandler
    hc32_ll_dma.o(i.DMA_SetDestAddr) refers to hc32_ll_utility.o(i.DDL_AssertHandler) for DDL_AssertHandler
    hc32_ll_dma.o(i.DMA_SetDestRepeatSize) refers to hc32_ll_utility.o(i.DDL_AssertHandler) for DDL_AssertHandler
    hc32_ll_dma.o(i.DMA_SetLlpAddr) refers to hc32_ll_utility.o(i.DDL_AssertHandler) for DDL_AssertHandler
    hc32_ll_dma.o(i.DMA_SetNonSeqDestCount) refers to hc32_ll_utility.o(i.DDL_AssertHandler) for DDL_AssertHandler
    hc32_ll_dma.o(i.DMA_SetNonSeqDestOffset) refers to hc32_ll_utility.o(i.DDL_AssertHandler) for DDL_AssertHandler
    hc32_ll_dma.o(i.DMA_SetNonSeqSrcCount) refers to hc32_ll_utility.o(i.DDL_AssertHandler) for DDL_AssertHandler
    hc32_ll_dma.o(i.DMA_SetNonSeqSrcOffset) refers to hc32_ll_utility.o(i.DDL_AssertHandler) for DDL_AssertHandler
    hc32_ll_dma.o(i.DMA_SetSrcAddr) refers to hc32_ll_utility.o(i.DDL_AssertHandler) for DDL_AssertHandler
    hc32_ll_dma.o(i.DMA_SetSrcRepeatSize) refers to hc32_ll_utility.o(i.DDL_AssertHandler) for DDL_AssertHandler
    hc32_ll_dma.o(i.DMA_SetTransCount) refers to hc32_ll_utility.o(i.DDL_AssertHandler) for DDL_AssertHandler
    hc32_ll_dma.o(i.DMA_TransCompleteIntCmd) refers to hc32_ll_utility.o(i.DDL_AssertHandler) for DDL_AssertHandler
    ev_hc32f460_lqfp100_v2.o(i.BSP_CLK_Init) refers to hc32_ll_gpio.o(i.GPIO_AnalogCmd) for GPIO_AnalogCmd
    ev_hc32f460_lqfp100_v2.o(i.BSP_CLK_Init) refers to hc32_ll_clk.o(i.CLK_XtalStructInit) for CLK_XtalStructInit
    ev_hc32f460_lqfp100_v2.o(i.BSP_CLK_Init) refers to hc32_ll_clk.o(i.CLK_PLLStructInit) for CLK_PLLStructInit
    ev_hc32f460_lqfp100_v2.o(i.BSP_CLK_Init) refers to hc32_ll_clk.o(i.CLK_SetClockDiv) for CLK_SetClockDiv
    ev_hc32f460_lqfp100_v2.o(i.BSP_CLK_Init) refers to hc32_ll_clk.o(i.CLK_XtalInit) for CLK_XtalInit
    ev_hc32f460_lqfp100_v2.o(i.BSP_CLK_Init) refers to hc32_ll_clk.o(i.CLK_PLLInit) for CLK_PLLInit
    ev_hc32f460_lqfp100_v2.o(i.BSP_CLK_Init) refers to hc32_ll_clk.o(i.CLK_GetStableStatus) for CLK_GetStableStatus
    ev_hc32f460_lqfp100_v2.o(i.BSP_CLK_Init) refers to hc32_ll_sram.o(i.SRAM_SetWaitCycle) for SRAM_SetWaitCycle
    ev_hc32f460_lqfp100_v2.o(i.BSP_CLK_Init) refers to hc32_ll_efm.o(i.EFM_SetWaitCycle) for EFM_SetWaitCycle
    ev_hc32f460_lqfp100_v2.o(i.BSP_CLK_Init) refers to hc32_ll_gpio.o(i.GPIO_SetReadWaitCycle) for GPIO_SetReadWaitCycle
    ev_hc32f460_lqfp100_v2.o(i.BSP_CLK_Init) refers to hc32_ll_pwc.o(i.PWC_HighSpeedToHighPerformance) for PWC_HighSpeedToHighPerformance
    ev_hc32f460_lqfp100_v2.o(i.BSP_CLK_Init) refers to hc32_ll_clk.o(i.CLK_SetSysClockSrc) for CLK_SetSysClockSrc
    ev_hc32f460_lqfp100_v2.o(i.BSP_LED_Init) refers to hc32_ll_gpio.o(i.GPIO_StructInit) for GPIO_StructInit
    ev_hc32f460_lqfp100_v2.o(i.BSP_LED_Init) refers to hc32_ll_gpio.o(i.GPIO_Init) for GPIO_Init
    ev_hc32f460_lqfp100_v2.o(i.BSP_LED_Off) refers to hc32_ll_gpio.o(i.GPIO_SetPins) for GPIO_SetPins
    ev_hc32f460_lqfp100_v2.o(i.BSP_LED_On) refers to hc32_ll_gpio.o(i.GPIO_ResetPins) for GPIO_ResetPins
    ev_hc32f460_lqfp100_v2.o(i.BSP_LED_Sw) refers to hc32_ll_gpio.o(i.GPIO_ResetPins) for GPIO_ResetPins
    ev_hc32f460_lqfp100_v2.o(i.BSP_LED_Sw) refers to hc32_ll_gpio.o(i.GPIO_SetPins) for GPIO_SetPins
    ev_hc32f460_lqfp100_v2.o(i.BSP_LED_Toggle) refers to hc32_ll_gpio.o(i.GPIO_TogglePins) for GPIO_TogglePins
    ev_hc32f460_lqfp100_v2.o(i.BSP_PRINTF_Preinit) refers to hc32_ll_gpio.o(i.GPIO_SetFunc) for GPIO_SetFunc
    ev_hc32f460_lqfp100_v2.o(i.BSP_PRINTF_Preinit) refers to hc32_ll_fcg.o(i.FCG_Fcg1PeriphClockCmd) for FCG_Fcg1PeriphClockCmd
    ev_hc32f460_lqfp100_v2.o(i.BSP_PRINTF_Preinit) refers to hc32_ll_usart.o(i.USART_UART_StructInit) for USART_UART_StructInit
    ev_hc32f460_lqfp100_v2.o(i.BSP_PRINTF_Preinit) refers to hc32_ll_usart.o(i.USART_UART_Init) for USART_UART_Init
    ev_hc32f460_lqfp100_v2.o(i.BSP_PRINTF_Preinit) refers to hc32_ll_usart.o(i.USART_SetClockDiv) for USART_SetClockDiv
    ev_hc32f460_lqfp100_v2.o(i.BSP_PRINTF_Preinit) refers to hc32_ll_usart.o(i.USART_SetBaudrate) for USART_SetBaudrate
    ev_hc32f460_lqfp100_v2.o(i.BSP_PRINTF_Preinit) refers to hc32_ll_usart.o(i.USART_FuncCmd) for USART_FuncCmd
    ev_hc32f460_lqfp100_v2.o(i.BSP_XTAL32_Init) refers to hc32_ll_clk.o(i.CLK_Xtal32Cmd) for CLK_Xtal32Cmd
    ev_hc32f460_lqfp100_v2.o(i.BSP_XTAL32_Init) refers to hc32_ll_utility.o(i.DDL_DelayUS) for DDL_DelayUS
    ev_hc32f460_lqfp100_v2.o(i.BSP_XTAL32_Init) refers to hc32_ll_clk.o(i.CLK_Xtal32StructInit) for CLK_Xtal32StructInit
    ev_hc32f460_lqfp100_v2.o(i.BSP_XTAL32_Init) refers to hc32_ll_gpio.o(i.GPIO_AnalogCmd) for GPIO_AnalogCmd
    ev_hc32f460_lqfp100_v2.o(i.BSP_XTAL32_Init) refers to hc32_ll_clk.o(i.CLK_Xtal32Init) for CLK_Xtal32Init
    ev_hc32f460_lqfp100_v2.o(i.BSP_XTAL32_Init) refers to hc32_ll_fcg.o(i.FCG_Fcg0PeriphClockCmd) for FCG_Fcg0PeriphClockCmd
    ev_hc32f460_lqfp100_v2.o(i.BSP_XTAL32_Init) refers to hc32_ll_fcm.o(i.FCM_StructInit) for FCM_StructInit
    ev_hc32f460_lqfp100_v2.o(i.BSP_XTAL32_Init) refers to hc32_ll_fcm.o(i.FCM_Init) for FCM_Init
    ev_hc32f460_lqfp100_v2.o(i.BSP_XTAL32_Init) refers to hc32_ll_fcm.o(i.FCM_Cmd) for FCM_Cmd
    ev_hc32f460_lqfp100_v2.o(i.BSP_XTAL32_Init) refers to hc32_ll_fcm.o(i.FCM_GetStatus) for FCM_GetStatus
    ev_hc32f460_lqfp100_v2.o(i.BSP_XTAL32_Init) refers to hc32_ll_fcm.o(i.FCM_ClearStatus) for FCM_ClearStatus
    ev_hc32f460_lqfp100_v2.o(i.BSP_XTAL32_Init) refers to hc32_ll_fcm.o(i.FCM_DeInit) for FCM_DeInit
    ev_hc32f460_lqfp100_v2.o(i.BSP_XTAL32_Init) refers to system_hc32f460.o(.data) for SystemCoreClock
    ev_hc32f460_lqfp100_v2.o(i.C_LED_ERR_BLUE) refers to ev_hc32f460_lqfp100_v2.o(.data) for led_sw
    ev_hc32f460_lqfp100_v2.o(i.C_LED_ERR_GREEN) refers to ev_hc32f460_lqfp100_v2.o(.data) for led_sw
    ev_hc32f460_lqfp100_v2.o(i.C_LED_ERR_RED) refers to ev_hc32f460_lqfp100_v2.o(.data) for led_sw
    ev_hc32f460_lqfp100_v2.o(i.C_LED_OK) refers to ev_hc32f460_lqfp100_v2.o(.data) for led_sw
    ev_hc32f460_lqfp100_v2.o(i.TMR02_A_Config) refers to hc32_ll_fcg.o(i.FCG_Fcg2PeriphClockCmd) for FCG_Fcg2PeriphClockCmd
    ev_hc32f460_lqfp100_v2.o(i.TMR02_A_Config) refers to hc32_ll_fcg.o(i.FCG_Fcg0PeriphClockCmd) for FCG_Fcg0PeriphClockCmd
    ev_hc32f460_lqfp100_v2.o(i.TMR02_A_Config) refers to hc32_ll_tmr0.o(i.TMR0_StructInit) for TMR0_StructInit
    ev_hc32f460_lqfp100_v2.o(i.TMR02_A_Config) refers to hc32_ll_tmr0.o(i.TMR0_Init) for TMR0_Init
    ev_hc32f460_lqfp100_v2.o(i.TMR02_A_Config) refers to hc32_ll_utility.o(i.DDL_DelayMS) for DDL_DelayMS
    ev_hc32f460_lqfp100_v2.o(i.TMR02_A_Config) refers to hc32_ll_tmr0.o(i.TMR0_HWStopCondCmd) for TMR0_HWStopCondCmd
    ev_hc32f460_lqfp100_v2.o(i.TMR02_A_Config) refers to hc32_ll_tmr0.o(i.TMR0_IntCmd) for TMR0_IntCmd
    ev_hc32f460_lqfp100_v2.o(i.TMR02_A_Config) refers to hc32_ll_interrupts.o(i.INTC_IrqSignIn) for INTC_IrqSignIn
    ev_hc32f460_lqfp100_v2.o(i.TMR02_A_Config) refers to ev_hc32f460_lqfp100_v2.o(i.TMR0_CHA_CompareIrqCallback) for TMR0_CHA_CompareIrqCallback
    ev_hc32f460_lqfp100_v2.o(i.TMR0_CHA_CompareIrqCallback) refers to ev_hc32f460_lqfp100_v2.o(i.BSP_LED_Sw) for BSP_LED_Sw
    ev_hc32f460_lqfp100_v2.o(i.TMR0_CHA_CompareIrqCallback) refers to hc32_ll_tmr0.o(i.TMR0_ClearStatus) for TMR0_ClearStatus
    ev_hc32f460_lqfp100_v2.o(i.TMR0_CHA_CompareIrqCallback) refers to ev_hc32f460_lqfp100_v2.o(.data) for timer0_CHB_count
    main.o(i.Key_Init) refers to hc32_ll_gpio.o(i.GPIO_StructInit) for GPIO_StructInit
    main.o(i.Key_Init) refers to hc32_ll_gpio.o(i.GPIO_Init) for GPIO_Init
    main.o(i.Key_Read) refers to hc32_ll_gpio.o(i.GPIO_ReadInputPins) for GPIO_ReadInputPins
    main.o(i.Key_Read) refers to hc32_ll_utility.o(i.DDL_DelayMS) for DDL_DelayMS
    main.o(i.Key_Read) refers to main.o(.data) for key_up
    main.o(i.Read_Adv_7391Sw) refers to hc32_ll_gpio.o(i.GPIO_ReadInputPins) for GPIO_ReadInputPins
    main.o(i.Read_Adv_7391Sw) refers to main.o(.data) for key_state
    main.o(i.enable_auto_detection) refers to i2c.o(i.I2C_Master_Transmit) for I2C_Master_Transmit
    main.o(i.enable_auto_detection) refers to main.o(.data) for art
    main.o(i.main) refers to hc32_ll.o(i.LL_PERIPH_WE) for LL_PERIPH_WE
    main.o(i.main) refers to hc32_ll_efm.o(i.EFM_FWMC_Cmd) for EFM_FWMC_Cmd
    main.o(i.main) refers to ev_hc32f460_lqfp100_v2.o(i.BSP_CLK_Init) for BSP_CLK_Init
    main.o(i.main) refers to ev_hc32f460_lqfp100_v2.o(i.BSP_LED_Init) for BSP_LED_Init
    main.o(i.main) refers to main.o(i.vd_Button_Init) for vd_Button_Init
    main.o(i.main) refers to main.o(i.Key_Init) for Key_Init
    main.o(i.main) refers to ev_hc32f460_lqfp100_v2.o(i.TMR02_A_Config) for TMR02_A_Config
    main.o(i.main) refers to hc32_ll_utility.o(i.LL_PrintfInit) for LL_PrintfInit
    main.o(i.main) refers to i2c.o(i.i2c_init) for i2c_init
    main.o(i.main) refers to hc32_ll_tmr0.o(i.TMR0_Start) for TMR0_Start
    main.o(i.main) refers to uart_dma.o(i.uart_dma_init) for uart_dma_init
    main.o(i.main) refers to videoprocess.o(i.Video_Sw) for Video_Sw
    main.o(i.main) refers to videoprocess.o(i.Signal_led) for Signal_led
    main.o(i.main) refers to main.o(i.Key_Read) for Key_Read
    main.o(i.main) refers to videoprocess.o(i.detect_loop) for detect_loop
    main.o(i.main) refers to uart_dma.o(i.signal_turn) for signal_turn
    main.o(i.main) refers to ev_hc32f460_lqfp100_v2.o(i.C_LED_OK) for C_LED_OK
    main.o(i.main) refers to ev_hc32f460_lqfp100_v2.o(i.C_LED_ERR_RED) for C_LED_ERR_RED
    main.o(i.main) refers to ev_hc32f460_lqfp100_v2.o(i.C_LED_ERR_GREEN) for C_LED_ERR_GREEN
    main.o(i.main) refers to ev_hc32f460_lqfp100_v2.o(i.C_LED_ERR_BLUE) for C_LED_ERR_BLUE
    main.o(i.main) refers to ev_hc32f460_lqfp100_v2.o(i.BSP_PRINTF_Preinit) for BSP_PRINTF_Preinit
    main.o(i.main) refers to videoprocess.o(.data) for adv_sw
    main.o(i.main) refers to ev_hc32f460_lqfp100_v2.o(.data) for g_u16_sys_timer
    main.o(i.main) refers to main.o(.data) for Input_signal_last
    main.o(i.printBinary) refers to putc.o(i.putc) for putc
    main.o(i.printBinary) refers to stdout.o(.data) for __stdout
    main.o(i.vd_Button_Init) refers to hc32_ll_gpio.o(i.GPIO_StructInit) for GPIO_StructInit
    main.o(i.vd_Button_Init) refers to hc32_ll_gpio.o(i.GPIO_Init) for GPIO_Init
    main.o(i.vd_Button_Init) refers to flash.o(i.Read_ASW2) for Read_ASW2
    main.o(i.vd_Button_Init) refers to flash.o(i.Video_ReadNot2) for Video_ReadNot2
    main.o(i.vd_Button_Init) refers to flash.o(i.Read_AVSW) for Read_AVSW
    main.o(i.vd_Button_Init) refers to videoprocess.o(.data) for asw_02
    flash.o(i.FLASH_EraseSector) refers to hc32_ll_efm.o(i.EFM_SectorErase) for EFM_SectorErase
    flash.o(i.FLASH_WriteData) refers to hc32_ll_efm.o(i.EFM_Program) for EFM_Program
    flash.o(i.Read_ASW2) refers to flash.o(i.FLASH_ReadData) for FLASH_ReadData
    flash.o(i.Read_ASW2) refers to flash.o(.bss) for u8_buf
    flash.o(i.Read_ASW2) refers to videoprocess.o(.data) for asw_02
    flash.o(i.Read_AVSW) refers to flash.o(i.FLASH_ReadData) for FLASH_ReadData
    flash.o(i.Read_AVSW) refers to flash.o(.bss) for u8_buf
    flash.o(i.Read_AVSW) refers to videoprocess.o(.data) for AVsw
    flash.o(i.Video_ReadNot2) refers to flash.o(i.FLASH_ReadData) for FLASH_ReadData
    flash.o(i.Video_ReadNot2) refers to videoprocess.o(i.ASC_Not02) for ASC_Not02
    flash.o(i.Video_ReadNot2) refers to flash.o(.bss) for u8_buf
    flash.o(i.Video_ReadNot2) refers to videoprocess.o(.data) for adv_input
    flash.o(i.mem_settings) refers to flash.o(i.FLASH_EraseSector) for FLASH_EraseSector
    flash.o(i.mem_settings) refers to flash.o(i.FLASH_WriteData) for FLASH_WriteData
    flash.o(i.mem_settings) refers to printf8.o(i.__0printf$8) for __2printf
    flash.o(i.mem_settings) refers to flash.o(.bss) for u8_buf
    flash.o(i.mem_settings) refers to videoprocess.o(.data) for adv_input
    i2c.o(i.ADV_7280_Send_Buff) refers to hc32_ll_i2c.o(i.I2C_Cmd) for I2C_Cmd
    i2c.o(i.ADV_7280_Send_Buff) refers to hc32_ll_i2c.o(i.I2C_SWResetCmd) for I2C_SWResetCmd
    i2c.o(i.ADV_7280_Send_Buff) refers to hc32_ll_i2c.o(i.I2C_Start) for I2C_Start
    i2c.o(i.ADV_7280_Send_Buff) refers to hc32_ll_i2c.o(i.I2C_TransAddr) for I2C_TransAddr
    i2c.o(i.ADV_7280_Send_Buff) refers to hc32_ll_utility.o(i.DDL_DelayUS) for DDL_DelayUS
    i2c.o(i.ADV_7280_Send_Buff) refers to hc32_ll_i2c.o(i.I2C_TransData) for I2C_TransData
    i2c.o(i.ADV_7280_Send_Buff) refers to hc32_ll_i2c.o(i.I2C_Stop) for I2C_Stop
    i2c.o(i.Chip_Receive) refers to hc32_ll_i2c.o(i.I2C_Cmd) for I2C_Cmd
    i2c.o(i.Chip_Receive) refers to hc32_ll_i2c.o(i.I2C_SWResetCmd) for I2C_SWResetCmd
    i2c.o(i.Chip_Receive) refers to hc32_ll_i2c.o(i.I2C_Start) for I2C_Start
    i2c.o(i.Chip_Receive) refers to hc32_ll_i2c.o(i.I2C_TransAddr) for I2C_TransAddr
    i2c.o(i.Chip_Receive) refers to hc32_ll_utility.o(i.DDL_DelayUS) for DDL_DelayUS
    i2c.o(i.Chip_Receive) refers to hc32_ll_i2c.o(i.I2C_TransData) for I2C_TransData
    i2c.o(i.Chip_Receive) refers to hc32_ll_i2c.o(i.I2C_Restart) for I2C_Restart
    i2c.o(i.Chip_Receive) refers to hc32_ll_i2c.o(i.I2C_AckConfig) for I2C_AckConfig
    i2c.o(i.Chip_Receive) refers to hc32_ll_i2c.o(i.I2C_MasterReceiveDataAndStop) for I2C_MasterReceiveDataAndStop
    i2c.o(i.Chip_Receive) refers to hc32_ll_i2c.o(i.I2C_Stop) for I2C_Stop
    i2c.o(i.I2C_Master_Receive) refers to hc32_ll_i2c.o(i.I2C_Cmd) for I2C_Cmd
    i2c.o(i.I2C_Master_Receive) refers to hc32_ll_i2c.o(i.I2C_SWResetCmd) for I2C_SWResetCmd
    i2c.o(i.I2C_Master_Receive) refers to hc32_ll_i2c.o(i.I2C_Start) for I2C_Start
    i2c.o(i.I2C_Master_Receive) refers to hc32_ll_i2c.o(i.I2C_AckConfig) for I2C_AckConfig
    i2c.o(i.I2C_Master_Receive) refers to hc32_ll_i2c.o(i.I2C_TransAddr) for I2C_TransAddr
    i2c.o(i.I2C_Master_Receive) refers to hc32_ll_utility.o(i.DDL_DelayUS) for DDL_DelayUS
    i2c.o(i.I2C_Master_Receive) refers to hc32_ll_i2c.o(i.I2C_MasterReceiveDataAndStop) for I2C_MasterReceiveDataAndStop
    i2c.o(i.I2C_Master_Receive) refers to hc32_ll_i2c.o(i.I2C_Stop) for I2C_Stop
    i2c.o(i.I2C_Master_Transmit) refers to hc32_ll_i2c.o(i.I2C_Cmd) for I2C_Cmd
    i2c.o(i.I2C_Master_Transmit) refers to hc32_ll_i2c.o(i.I2C_SWResetCmd) for I2C_SWResetCmd
    i2c.o(i.I2C_Master_Transmit) refers to hc32_ll_i2c.o(i.I2C_Start) for I2C_Start
    i2c.o(i.I2C_Master_Transmit) refers to hc32_ll_i2c.o(i.I2C_TransAddr) for I2C_TransAddr
    i2c.o(i.I2C_Master_Transmit) refers to hc32_ll_utility.o(i.DDL_DelayUS) for DDL_DelayUS
    i2c.o(i.I2C_Master_Transmit) refers to hc32_ll_i2c.o(i.I2C_TransData) for I2C_TransData
    i2c.o(i.I2C_Master_Transmit) refers to hc32_ll_i2c.o(i.I2C_Stop) for I2C_Stop
    i2c.o(i.Master_Initialize) refers to hc32_ll_i2c.o(i.I2C_DeInit) for I2C_DeInit
    i2c.o(i.Master_Initialize) refers to hc32_ll_i2c.o(i.I2C_StructInit) for I2C_StructInit
    i2c.o(i.Master_Initialize) refers to hc32_ll_i2c.o(i.I2C_Init) for I2C_Init
    i2c.o(i.Master_Initialize) refers to hc32_ll_i2c.o(i.I2C_BusWaitCmd) for I2C_BusWaitCmd
    i2c.o(i.Master_Initialize) refers to printf8.o(i.__0printf$8) for __2printf
    i2c.o(i.i2c_init) refers to hc32_ll_gpio.o(i.GPIO_SetFunc) for GPIO_SetFunc
    i2c.o(i.i2c_init) refers to hc32_ll_fcg.o(i.FCG_Fcg1PeriphClockCmd) for FCG_Fcg1PeriphClockCmd
    i2c.o(i.i2c_init) refers to i2c.o(i.Master_Initialize) for Master_Initialize
    i2c.o(i.i2c_init) refers to ev_hc32f460_lqfp100_v2.o(i.BSP_LED_Off) for BSP_LED_Off
    i2c.o(i.i2c_init) refers to printf8.o(i.__0printf$8) for __2printf
    i2c.o(i.i2c_init) refers to ev_hc32f460_lqfp100_v2.o(i.BSP_LED_Toggle) for BSP_LED_Toggle
    i2c.o(i.i2c_init) refers to hc32_ll_utility.o(i.DDL_DelayMS) for DDL_DelayMS
    uart_dma.o(i.DMA_Config) refers to hc32_ll_fcg.o(i.FCG_Fcg0PeriphClockCmd) for FCG_Fcg0PeriphClockCmd
    uart_dma.o(i.DMA_Config) refers to hc32_ll_dma.o(i.DMA_StructInit) for DMA_StructInit
    uart_dma.o(i.DMA_Config) refers to hc32_ll_dma.o(i.DMA_Init) for DMA_Init
    uart_dma.o(i.DMA_Config) refers to hc32_ll_dma.o(i.DMA_LlpStructInit) for DMA_LlpStructInit
    uart_dma.o(i.DMA_Config) refers to hc32_ll_dma.o(i.DMA_LlpInit) for DMA_LlpInit
    uart_dma.o(i.DMA_Config) refers to hc32_ll_dma.o(i.DMA_ReconfigLlpCmd) for DMA_ReconfigLlpCmd
    uart_dma.o(i.DMA_Config) refers to hc32_ll_dma.o(i.DMA_ReconfigCmd) for DMA_ReconfigCmd
    uart_dma.o(i.DMA_Config) refers to hc32_ll_aos.o(i.AOS_SetTriggerEventSrc) for AOS_SetTriggerEventSrc
    uart_dma.o(i.DMA_Config) refers to hc32_ll_interrupts.o(i.INTC_IrqSignIn) for INTC_IrqSignIn
    uart_dma.o(i.DMA_Config) refers to uart_dma.o(i.__NVIC_ClearPendingIRQ) for __NVIC_ClearPendingIRQ
    uart_dma.o(i.DMA_Config) refers to uart_dma.o(i.__NVIC_SetPriority) for __NVIC_SetPriority
    uart_dma.o(i.DMA_Config) refers to uart_dma.o(i.__NVIC_EnableIRQ) for __NVIC_EnableIRQ
    uart_dma.o(i.DMA_Config) refers to hc32_ll_dma.o(i.DMA_Cmd) for DMA_Cmd
    uart_dma.o(i.DMA_Config) refers to hc32_ll_dma.o(i.DMA_TransCompleteIntCmd) for DMA_TransCompleteIntCmd
    uart_dma.o(i.DMA_Config) refers to hc32_ll_dma.o(i.DMA_ChCmd) for DMA_ChCmd
    uart_dma.o(i.DMA_Config) refers to uart_dma.o(.bss) for dma_au8RxBuf
    uart_dma.o(i.DMA_Config) refers to uart_dma.o(i.RX_DMA_TC_IrqCallback) for RX_DMA_TC_IrqCallback
    uart_dma.o(i.DMA_Config) refers to uart_dma.o(i.TX_DMA_TC_IrqCallback) for TX_DMA_TC_IrqCallback
    uart_dma.o(i.RX_DMA_TC_IrqCallback) refers to hc32_ll_usart.o(i.USART_FuncCmd) for USART_FuncCmd
    uart_dma.o(i.RX_DMA_TC_IrqCallback) refers to hc32_ll_dma.o(i.DMA_ClearTransCompleteStatus) for DMA_ClearTransCompleteStatus
    uart_dma.o(i.RX_DMA_TC_IrqCallback) refers to uart_dma.o(.data) for m_enRxFrameEnd
    uart_dma.o(i.TMR0_Config) refers to hc32_ll_fcg.o(i.FCG_Fcg2PeriphClockCmd) for FCG_Fcg2PeriphClockCmd
    uart_dma.o(i.TMR0_Config) refers to hc32_ll_tmr0.o(i.TMR0_Init) for TMR0_Init
    uart_dma.o(i.TMR0_Config) refers to hc32_ll_tmr0.o(i.TMR0_HWStartCondCmd) for TMR0_HWStartCondCmd
    uart_dma.o(i.TMR0_Config) refers to hc32_ll_tmr0.o(i.TMR0_HWClearCondCmd) for TMR0_HWClearCondCmd
    uart_dma.o(i.TX_DMA_TC_IrqCallback) refers to hc32_ll_usart.o(i.USART_FuncCmd) for USART_FuncCmd
    uart_dma.o(i.TX_DMA_TC_IrqCallback) refers to hc32_ll_dma.o(i.DMA_ClearTransCompleteStatus) for DMA_ClearTransCompleteStatus
    uart_dma.o(i.USART_RxError_IrqCallback) refers to hc32_ll_usart.o(i.USART_ReadData) for USART_ReadData
    uart_dma.o(i.USART_RxError_IrqCallback) refers to hc32_ll_usart.o(i.USART_ClearStatus) for USART_ClearStatus
    uart_dma.o(i.USART_RxTimeout_IrqCallback) refers to hc32_ll_dma.o(i.DMA_GetTransCount) for DMA_GetTransCount
    uart_dma.o(i.USART_RxTimeout_IrqCallback) refers to hc32_ll_tmr0.o(i.TMR0_Stop) for TMR0_Stop
    uart_dma.o(i.USART_RxTimeout_IrqCallback) refers to hc32_ll_usart.o(i.USART_ClearStatus) for USART_ClearStatus
    uart_dma.o(i.USART_RxTimeout_IrqCallback) refers to uart_dma.o(.data) for m_enRxFrameEnd
    uart_dma.o(i.USART_TxComplete_IrqCallback) refers to hc32_ll_usart.o(i.USART_FuncCmd) for USART_FuncCmd
    uart_dma.o(i.USART_TxComplete_IrqCallback) refers to hc32_ll_tmr0.o(i.TMR0_Stop) for TMR0_Stop
    uart_dma.o(i.USART_TxComplete_IrqCallback) refers to hc32_ll_usart.o(i.USART_ClearStatus) for USART_ClearStatus
    uart_dma.o(i.get_mode) refers to i2c.o(i.I2C_Master_Transmit) for I2C_Master_Transmit
    uart_dma.o(i.get_mode) refers to printf8.o(i.__0printf$8) for __2printf
    uart_dma.o(i.get_mode) refers to videoprocess.o(.data) for adv_tv
    uart_dma.o(i.signal_turn) refers to memseta.o(.text) for __aeabi_memclr4
    uart_dma.o(i.signal_turn) refers to flash.o(i.mem_settings) for mem_settings
    uart_dma.o(i.signal_turn) refers to i2c.o(i.I2C_Master_Transmit) for I2C_Master_Transmit
    uart_dma.o(i.signal_turn) refers to printf8.o(i.__0printf$8) for __2printf
    uart_dma.o(i.signal_turn) refers to videoprocess.o(i.video_init) for video_init
    uart_dma.o(i.signal_turn) refers to videoprocess.o(i.video_Deinit) for video_Deinit
    uart_dma.o(i.signal_turn) refers to videoprocess.o(i.ASC) for ASC
    uart_dma.o(i.signal_turn) refers to videoprocess.o(i.AV_Connecte_Set) for AV_Connecte_Set
    uart_dma.o(i.signal_turn) refers to uart_dma.o(i.get_mode) for get_mode
    uart_dma.o(i.signal_turn) refers to videoprocess.o(i.set_smooth) for set_smooth
    uart_dma.o(i.signal_turn) refers to videoprocess.o(i.set_double_line) for set_double_line
    uart_dma.o(i.signal_turn) refers to videoprocess.o(i.Reser_Status) for Reser_Status
    uart_dma.o(i.signal_turn) refers to hc32_ll_utility.o(i.DDL_DelayMS) for DDL_DelayMS
    uart_dma.o(i.signal_turn) refers to uart_dma.o(.data) for m_enRxFrameEnd
    uart_dma.o(i.signal_turn) refers to uart_dma.o(.bss) for dma_au8RxBuf
    uart_dma.o(i.signal_turn) refers to videoprocess.o(.data) for adv_tv
    uart_dma.o(i.signal_turn) refers to videoprocess.o(i.set_ace) for set_ace
    uart_dma.o(i.uart_dma_init) refers to uart_dma.o(i.DMA_Config) for DMA_Config
    uart_dma.o(i.uart_dma_init) refers to hc32_ll_gpio.o(i.GPIO_SetFunc) for GPIO_SetFunc
    uart_dma.o(i.uart_dma_init) refers to hc32_ll_fcg.o(i.FCG_Fcg1PeriphClockCmd) for FCG_Fcg1PeriphClockCmd
    uart_dma.o(i.uart_dma_init) refers to hc32_ll_usart.o(i.USART_UART_StructInit) for USART_UART_StructInit
    uart_dma.o(i.uart_dma_init) refers to hc32_ll_usart.o(i.USART_UART_Init) for USART_UART_Init
    uart_dma.o(i.uart_dma_init) refers to ev_hc32f460_lqfp100_v2.o(i.BSP_LED_On) for BSP_LED_On
    uart_dma.o(i.uart_dma_init) refers to hc32_ll_interrupts.o(i.INTC_IrqSignIn) for INTC_IrqSignIn
    uart_dma.o(i.uart_dma_init) refers to uart_dma.o(i.__NVIC_ClearPendingIRQ) for __NVIC_ClearPendingIRQ
    uart_dma.o(i.uart_dma_init) refers to uart_dma.o(i.__NVIC_SetPriority) for __NVIC_SetPriority
    uart_dma.o(i.uart_dma_init) refers to uart_dma.o(i.__NVIC_EnableIRQ) for __NVIC_EnableIRQ
    uart_dma.o(i.uart_dma_init) refers to uart_dma.o(i.TMR0_Config) for TMR0_Config
    uart_dma.o(i.uart_dma_init) refers to hc32_ll_usart.o(i.USART_FuncCmd) for USART_FuncCmd
    uart_dma.o(i.uart_dma_init) refers to uart_dma.o(i.USART_TxComplete_IrqCallback) for USART_TxComplete_IrqCallback
    uart_dma.o(i.uart_dma_init) refers to uart_dma.o(i.USART_RxError_IrqCallback) for USART_RxError_IrqCallback
    uart_dma.o(i.uart_dma_init) refers to uart_dma.o(i.USART_RxTimeout_IrqCallback) for USART_RxTimeout_IrqCallback
    uart_dma.o(i.uart_dma_send) refers to hc32_ll_dma.o(i.DMA_SetSrcAddr) for DMA_SetSrcAddr
    uart_dma.o(i.uart_dma_send) refers to hc32_ll_dma.o(i.DMA_SetTransCount) for DMA_SetTransCount
    uart_dma.o(i.uart_dma_send) refers to hc32_ll_dma.o(i.DMA_ChCmd) for DMA_ChCmd
    uart_dma.o(i.uart_dma_send) refers to hc32_ll_usart.o(i.USART_FuncCmd) for USART_FuncCmd
    uart_dma.o(i.uart_dma_send) refers to uart_dma.o(.bss) for dma_au8RxBuf
    uart_dma.o(i.uart_dma_send) refers to uart_dma.o(.data) for m_u16RxLen
    videoprocess.o(i.ASC) refers to hc32_ll_gpio.o(i.GPIO_ReadInputPins) for GPIO_ReadInputPins
    videoprocess.o(i.ASC) refers to hc32_ll_gpio.o(i.GPIO_SetPins) for GPIO_SetPins
    videoprocess.o(i.ASC) refers to hc32_ll_gpio.o(i.GPIO_ResetPins) for GPIO_ResetPins
    videoprocess.o(i.ASC_Not02) refers to hc32_ll_gpio.o(i.GPIO_ReadInputPins) for GPIO_ReadInputPins
    videoprocess.o(i.ASC_Not02) refers to hc32_ll_gpio.o(i.GPIO_SetPins) for GPIO_SetPins
    videoprocess.o(i.ASC_Not02) refers to hc32_ll_gpio.o(i.GPIO_ResetPins) for GPIO_ResetPins
    videoprocess.o(i.AV_Connecte_Set) refers to hc32_ll_gpio.o(i.GPIO_StructInit) for GPIO_StructInit
    videoprocess.o(i.AV_Connecte_Set) refers to printf8.o(i.__0printf$8) for __2printf
    videoprocess.o(i.AV_Connecte_Set) refers to hc32_ll_gpio.o(i.GPIO_Init) for GPIO_Init
    videoprocess.o(i.AV_Connecte_Set) refers to videoprocess.o(.data) for c_state
    videoprocess.o(i.Read_Video_key_change) refers to hc32_ll_gpio.o(i.GPIO_ReadInputPins) for GPIO_ReadInputPins
    videoprocess.o(i.Read_Video_key_change) refers to videoprocess.o(i.set_input) for set_input
    videoprocess.o(i.Read_Video_key_change) refers to videoprocess.o(i.set_double_line) for set_double_line
    videoprocess.o(i.Read_Video_key_change) refers to videoprocess.o(.data) for key_state
    videoprocess.o(i.Reser_Status) refers to videoprocess.o(.data) for status
    videoprocess.o(i.Signal_led) refers to ev_hc32f460_lqfp100_v2.o(.data) for led_state
    videoprocess.o(i.SoftwareReset_ADV7280A) refers to i2c.o(i.I2C_Master_Transmit) for I2C_Master_Transmit
    videoprocess.o(i.SoftwareReset_ADV7280A) refers to hc32_ll_utility.o(i.DDL_DelayMS) for DDL_DelayMS
    videoprocess.o(i.Video_Sw) refers to videoprocess.o(i.video_init) for video_init
    videoprocess.o(i.detect_loop) refers to i2c.o(i.I2C_Master_Transmit) for I2C_Master_Transmit
    videoprocess.o(i.detect_loop) refers to hc32_ll_utility.o(i.DDL_DelayMS) for DDL_DelayMS
    videoprocess.o(i.detect_loop) refers to i2c.o(i.Chip_Receive) for Chip_Receive
    videoprocess.o(i.detect_loop) refers to videoprocess.o(i.set_input) for set_input
    videoprocess.o(i.detect_loop) refers to printf8.o(i.__0printf$8) for __2printf
    videoprocess.o(i.detect_loop) refers to videoprocess.o(i.Signal_led) for Signal_led
    videoprocess.o(i.detect_loop) refers to videoprocess.o(.data) for Adv_7391_sw
    videoprocess.o(i.detect_loop) refers to ev_hc32f460_lqfp100_v2.o(.data) for led_sw
    videoprocess.o(i.set_ace) refers to i2c.o(i.ADV_7280_Send_Buff) for ADV_7280_Send_Buff
    videoprocess.o(i.set_ace) refers to printf8.o(i.__0printf$8) for __2printf
    videoprocess.o(i.set_ace) refers to videoprocess.o(.data) for Ace_Code_ON
    videoprocess.o(i.set_bcsh) refers to i2c.o(i.ADV_7280_Send_Buff) for ADV_7280_Send_Buff
    videoprocess.o(i.set_bcsh) refers to printf8.o(i.__0printf$8) for __2printf
    videoprocess.o(i.set_bcsh) refers to videoprocess.o(.data) for Bright
    videoprocess.o(i.set_double_line) refers to i2c.o(i.ADV_7280_Send_Buff) for ADV_7280_Send_Buff
    videoprocess.o(i.set_double_line) refers to printf8.o(i.__0printf$8) for __2printf
    videoprocess.o(i.set_double_line) refers to videoprocess.o(.data) for I2C_COMMANDS_I2P_ON
    videoprocess.o(i.set_double_line) refers to videoprocess.o(.constdata) for I2C_COMMANDS_I2P_OFF_p
    videoprocess.o(i.set_input) refers to i2c.o(i.ADV_7280_Send_Buff) for ADV_7280_Send_Buff
    videoprocess.o(i.set_input) refers to printf8.o(i.__0printf$8) for __2printf
    videoprocess.o(i.set_input) refers to videoprocess.o(.data) for I2C_COMMANDS_YC_INPUT
    videoprocess.o(i.set_smooth) refers to i2c.o(i.ADV_7280_Send_Buff) for ADV_7280_Send_Buff
    videoprocess.o(i.set_smooth) refers to printf8.o(i.__0printf$8) for __2printf
    videoprocess.o(i.set_smooth) refers to videoprocess.o(.data) for I2C_COMMANDS_SMOOTH_ON
    videoprocess.o(i.video_Deinit) refers to hc32_ll_gpio.o(i.GPIO_ResetPins) for GPIO_ResetPins
    videoprocess.o(i.video_Deinit) refers to printf8.o(i.__0printf$8) for __2printf
    videoprocess.o(i.video_Deinit) refers to videoprocess.o(.data) for Adv_7391_sw
    videoprocess.o(i.video_init) refers to hc32_ll_gpio.o(i.GPIO_SetPins) for GPIO_SetPins
    videoprocess.o(i.video_init) refers to hc32_ll_utility.o(i.DDL_DelayMS) for DDL_DelayMS
    videoprocess.o(i.video_init) refers to i2c.o(i.Chip_Receive) for Chip_Receive
    videoprocess.o(i.video_init) refers to i2c.o(i.ADV_7280_Send_Buff) for ADV_7280_Send_Buff
    videoprocess.o(i.video_init) refers to videoprocess.o(i.set_input) for set_input
    videoprocess.o(i.video_init) refers to printf8.o(i.__0printf$8) for __2printf
    videoprocess.o(i.video_init) refers to i2c.o(i.I2C_Master_Transmit) for I2C_Master_Transmit
    videoprocess.o(i.video_init) refers to videoprocess.o(i.set_bcsh) for set_bcsh
    videoprocess.o(i.video_init) refers to videoprocess.o(i.set_double_line) for set_double_line
    videoprocess.o(i.video_init) refers to videoprocess.o(i.set_smooth) for set_smooth
    videoprocess.o(i.video_init) refers to videoprocess.o(.data) for I2C_AUTO_COMMANDS
    system_hc32f460.o(i.$Sub$$main) refers to system_hc32f460.o(i.SystemCoreClockUpdate) for SystemCoreClockUpdate
    system_hc32f460.o(i.$Sub$$main) refers to main.o(i.main) for $Super$$main
    system_hc32f460.o(i.SystemCoreClockUpdate) refers to system_hc32f460.o(.data) for HRC_VALUE
    system_hc32f460.o(i.SystemInit) refers to system_hc32f460.o(i.SystemCoreClockUpdate) for SystemCoreClockUpdate
    startup_hc32f460.o(RESET) refers to startup_hc32f460.o(STACK) for __initial_sp
    startup_hc32f460.o(RESET) refers to startup_hc32f460.o(.text) for Reset_Handler
    startup_hc32f460.o(RESET) refers to cmb_fault.o(.text) for HardFault_Handler
    startup_hc32f460.o(RESET) refers to hc32_ll_interrupts.o(i.IRQ000_Handler) for IRQ000_Handler
    startup_hc32f460.o(RESET) refers to hc32_ll_interrupts.o(i.IRQ001_Handler) for IRQ001_Handler
    startup_hc32f460.o(RESET) refers to hc32_ll_interrupts.o(i.IRQ002_Handler) for IRQ002_Handler
    startup_hc32f460.o(RESET) refers to hc32_ll_interrupts.o(i.IRQ003_Handler) for IRQ003_Handler
    startup_hc32f460.o(RESET) refers to hc32_ll_interrupts.o(i.IRQ004_Handler) for IRQ004_Handler
    startup_hc32f460.o(RESET) refers to hc32_ll_interrupts.o(i.IRQ005_Handler) for IRQ005_Handler
    startup_hc32f460.o(RESET) refers to hc32_ll_interrupts.o(i.IRQ006_Handler) for IRQ006_Handler
    startup_hc32f460.o(RESET) refers to hc32_ll_interrupts.o(i.IRQ007_Handler) for IRQ007_Handler
    startup_hc32f460.o(RESET) refers to hc32_ll_interrupts.o(i.IRQ008_Handler) for IRQ008_Handler
    startup_hc32f460.o(RESET) refers to hc32_ll_interrupts.o(i.IRQ009_Handler) for IRQ009_Handler
    startup_hc32f460.o(RESET) refers to hc32_ll_interrupts.o(i.IRQ010_Handler) for IRQ010_Handler
    startup_hc32f460.o(RESET) refers to hc32_ll_interrupts.o(i.IRQ011_Handler) for IRQ011_Handler
    startup_hc32f460.o(RESET) refers to hc32_ll_interrupts.o(i.IRQ012_Handler) for IRQ012_Handler
    startup_hc32f460.o(RESET) refers to hc32_ll_interrupts.o(i.IRQ013_Handler) for IRQ013_Handler
    startup_hc32f460.o(RESET) refers to hc32_ll_interrupts.o(i.IRQ014_Handler) for IRQ014_Handler
    startup_hc32f460.o(RESET) refers to hc32_ll_interrupts.o(i.IRQ015_Handler) for IRQ015_Handler
    startup_hc32f460.o(RESET) refers to hc32_ll_interrupts.o(i.IRQ016_Handler) for IRQ016_Handler
    startup_hc32f460.o(RESET) refers to hc32_ll_interrupts.o(i.IRQ017_Handler) for IRQ017_Handler
    startup_hc32f460.o(RESET) refers to hc32_ll_interrupts.o(i.IRQ018_Handler) for IRQ018_Handler
    startup_hc32f460.o(RESET) refers to hc32_ll_interrupts.o(i.IRQ019_Handler) for IRQ019_Handler
    startup_hc32f460.o(RESET) refers to hc32_ll_interrupts.o(i.IRQ020_Handler) for IRQ020_Handler
    startup_hc32f460.o(RESET) refers to hc32_ll_interrupts.o(i.IRQ021_Handler) for IRQ021_Handler
    startup_hc32f460.o(RESET) refers to hc32_ll_interrupts.o(i.IRQ022_Handler) for IRQ022_Handler
    startup_hc32f460.o(RESET) refers to hc32_ll_interrupts.o(i.IRQ023_Handler) for IRQ023_Handler
    startup_hc32f460.o(RESET) refers to hc32_ll_interrupts.o(i.IRQ024_Handler) for IRQ024_Handler
    startup_hc32f460.o(RESET) refers to hc32_ll_interrupts.o(i.IRQ025_Handler) for IRQ025_Handler
    startup_hc32f460.o(RESET) refers to hc32_ll_interrupts.o(i.IRQ026_Handler) for IRQ026_Handler
    startup_hc32f460.o(RESET) refers to hc32_ll_interrupts.o(i.IRQ027_Handler) for IRQ027_Handler
    startup_hc32f460.o(RESET) refers to hc32_ll_interrupts.o(i.IRQ028_Handler) for IRQ028_Handler
    startup_hc32f460.o(RESET) refers to hc32_ll_interrupts.o(i.IRQ029_Handler) for IRQ029_Handler
    startup_hc32f460.o(RESET) refers to hc32_ll_interrupts.o(i.IRQ030_Handler) for IRQ030_Handler
    startup_hc32f460.o(RESET) refers to hc32_ll_interrupts.o(i.IRQ031_Handler) for IRQ031_Handler
    startup_hc32f460.o(RESET) refers to hc32_ll_interrupts.o(i.IRQ032_Handler) for IRQ032_Handler
    startup_hc32f460.o(RESET) refers to hc32_ll_interrupts.o(i.IRQ033_Handler) for IRQ033_Handler
    startup_hc32f460.o(RESET) refers to hc32_ll_interrupts.o(i.IRQ034_Handler) for IRQ034_Handler
    startup_hc32f460.o(RESET) refers to hc32_ll_interrupts.o(i.IRQ035_Handler) for IRQ035_Handler
    startup_hc32f460.o(RESET) refers to hc32_ll_interrupts.o(i.IRQ036_Handler) for IRQ036_Handler
    startup_hc32f460.o(RESET) refers to hc32_ll_interrupts.o(i.IRQ037_Handler) for IRQ037_Handler
    startup_hc32f460.o(RESET) refers to hc32_ll_interrupts.o(i.IRQ038_Handler) for IRQ038_Handler
    startup_hc32f460.o(RESET) refers to hc32_ll_interrupts.o(i.IRQ039_Handler) for IRQ039_Handler
    startup_hc32f460.o(RESET) refers to hc32_ll_interrupts.o(i.IRQ040_Handler) for IRQ040_Handler
    startup_hc32f460.o(RESET) refers to hc32_ll_interrupts.o(i.IRQ041_Handler) for IRQ041_Handler
    startup_hc32f460.o(RESET) refers to hc32_ll_interrupts.o(i.IRQ042_Handler) for IRQ042_Handler
    startup_hc32f460.o(RESET) refers to hc32_ll_interrupts.o(i.IRQ043_Handler) for IRQ043_Handler
    startup_hc32f460.o(RESET) refers to hc32_ll_interrupts.o(i.IRQ044_Handler) for IRQ044_Handler
    startup_hc32f460.o(RESET) refers to hc32_ll_interrupts.o(i.IRQ045_Handler) for IRQ045_Handler
    startup_hc32f460.o(RESET) refers to hc32_ll_interrupts.o(i.IRQ046_Handler) for IRQ046_Handler
    startup_hc32f460.o(RESET) refers to hc32_ll_interrupts.o(i.IRQ047_Handler) for IRQ047_Handler
    startup_hc32f460.o(RESET) refers to hc32_ll_interrupts.o(i.IRQ048_Handler) for IRQ048_Handler
    startup_hc32f460.o(RESET) refers to hc32_ll_interrupts.o(i.IRQ049_Handler) for IRQ049_Handler
    startup_hc32f460.o(RESET) refers to hc32_ll_interrupts.o(i.IRQ050_Handler) for IRQ050_Handler
    startup_hc32f460.o(RESET) refers to hc32_ll_interrupts.o(i.IRQ051_Handler) for IRQ051_Handler
    startup_hc32f460.o(RESET) refers to hc32_ll_interrupts.o(i.IRQ052_Handler) for IRQ052_Handler
    startup_hc32f460.o(RESET) refers to hc32_ll_interrupts.o(i.IRQ053_Handler) for IRQ053_Handler
    startup_hc32f460.o(RESET) refers to hc32_ll_interrupts.o(i.IRQ054_Handler) for IRQ054_Handler
    startup_hc32f460.o(RESET) refers to hc32_ll_interrupts.o(i.IRQ055_Handler) for IRQ055_Handler
    startup_hc32f460.o(RESET) refers to hc32_ll_interrupts.o(i.IRQ056_Handler) for IRQ056_Handler
    startup_hc32f460.o(RESET) refers to hc32_ll_interrupts.o(i.IRQ057_Handler) for IRQ057_Handler
    startup_hc32f460.o(RESET) refers to hc32_ll_interrupts.o(i.IRQ058_Handler) for IRQ058_Handler
    startup_hc32f460.o(RESET) refers to hc32_ll_interrupts.o(i.IRQ059_Handler) for IRQ059_Handler
    startup_hc32f460.o(RESET) refers to hc32_ll_interrupts.o(i.IRQ060_Handler) for IRQ060_Handler
    startup_hc32f460.o(RESET) refers to hc32_ll_interrupts.o(i.IRQ061_Handler) for IRQ061_Handler
    startup_hc32f460.o(RESET) refers to hc32_ll_interrupts.o(i.IRQ062_Handler) for IRQ062_Handler
    startup_hc32f460.o(RESET) refers to hc32_ll_interrupts.o(i.IRQ063_Handler) for IRQ063_Handler
    startup_hc32f460.o(RESET) refers to hc32_ll_interrupts.o(i.IRQ064_Handler) for IRQ064_Handler
    startup_hc32f460.o(RESET) refers to hc32_ll_interrupts.o(i.IRQ065_Handler) for IRQ065_Handler
    startup_hc32f460.o(RESET) refers to hc32_ll_interrupts.o(i.IRQ066_Handler) for IRQ066_Handler
    startup_hc32f460.o(RESET) refers to hc32_ll_interrupts.o(i.IRQ067_Handler) for IRQ067_Handler
    startup_hc32f460.o(RESET) refers to hc32_ll_interrupts.o(i.IRQ068_Handler) for IRQ068_Handler
    startup_hc32f460.o(RESET) refers to hc32_ll_interrupts.o(i.IRQ069_Handler) for IRQ069_Handler
    startup_hc32f460.o(RESET) refers to hc32_ll_interrupts.o(i.IRQ070_Handler) for IRQ070_Handler
    startup_hc32f460.o(RESET) refers to hc32_ll_interrupts.o(i.IRQ071_Handler) for IRQ071_Handler
    startup_hc32f460.o(RESET) refers to hc32_ll_interrupts.o(i.IRQ072_Handler) for IRQ072_Handler
    startup_hc32f460.o(RESET) refers to hc32_ll_interrupts.o(i.IRQ073_Handler) for IRQ073_Handler
    startup_hc32f460.o(RESET) refers to hc32_ll_interrupts.o(i.IRQ074_Handler) for IRQ074_Handler
    startup_hc32f460.o(RESET) refers to hc32_ll_interrupts.o(i.IRQ075_Handler) for IRQ075_Handler
    startup_hc32f460.o(RESET) refers to hc32_ll_interrupts.o(i.IRQ076_Handler) for IRQ076_Handler
    startup_hc32f460.o(RESET) refers to hc32_ll_interrupts.o(i.IRQ077_Handler) for IRQ077_Handler
    startup_hc32f460.o(RESET) refers to hc32_ll_interrupts.o(i.IRQ078_Handler) for IRQ078_Handler
    startup_hc32f460.o(RESET) refers to hc32_ll_interrupts.o(i.IRQ079_Handler) for IRQ079_Handler
    startup_hc32f460.o(RESET) refers to hc32_ll_interrupts.o(i.IRQ080_Handler) for IRQ080_Handler
    startup_hc32f460.o(RESET) refers to hc32_ll_interrupts.o(i.IRQ081_Handler) for IRQ081_Handler
    startup_hc32f460.o(RESET) refers to hc32_ll_interrupts.o(i.IRQ082_Handler) for IRQ082_Handler
    startup_hc32f460.o(RESET) refers to hc32_ll_interrupts.o(i.IRQ083_Handler) for IRQ083_Handler
    startup_hc32f460.o(RESET) refers to hc32_ll_interrupts.o(i.IRQ084_Handler) for IRQ084_Handler
    startup_hc32f460.o(RESET) refers to hc32_ll_interrupts.o(i.IRQ085_Handler) for IRQ085_Handler
    startup_hc32f460.o(RESET) refers to hc32_ll_interrupts.o(i.IRQ086_Handler) for IRQ086_Handler
    startup_hc32f460.o(RESET) refers to hc32_ll_interrupts.o(i.IRQ087_Handler) for IRQ087_Handler
    startup_hc32f460.o(RESET) refers to hc32_ll_interrupts.o(i.IRQ088_Handler) for IRQ088_Handler
    startup_hc32f460.o(RESET) refers to hc32_ll_interrupts.o(i.IRQ089_Handler) for IRQ089_Handler
    startup_hc32f460.o(RESET) refers to hc32_ll_interrupts.o(i.IRQ090_Handler) for IRQ090_Handler
    startup_hc32f460.o(RESET) refers to hc32_ll_interrupts.o(i.IRQ091_Handler) for IRQ091_Handler
    startup_hc32f460.o(RESET) refers to hc32_ll_interrupts.o(i.IRQ092_Handler) for IRQ092_Handler
    startup_hc32f460.o(RESET) refers to hc32_ll_interrupts.o(i.IRQ093_Handler) for IRQ093_Handler
    startup_hc32f460.o(RESET) refers to hc32_ll_interrupts.o(i.IRQ094_Handler) for IRQ094_Handler
    startup_hc32f460.o(RESET) refers to hc32_ll_interrupts.o(i.IRQ095_Handler) for IRQ095_Handler
    startup_hc32f460.o(RESET) refers to hc32_ll_interrupts.o(i.IRQ096_Handler) for IRQ096_Handler
    startup_hc32f460.o(RESET) refers to hc32_ll_interrupts.o(i.IRQ097_Handler) for IRQ097_Handler
    startup_hc32f460.o(RESET) refers to hc32_ll_interrupts.o(i.IRQ098_Handler) for IRQ098_Handler
    startup_hc32f460.o(RESET) refers to hc32_ll_interrupts.o(i.IRQ099_Handler) for IRQ099_Handler
    startup_hc32f460.o(RESET) refers to hc32_ll_interrupts.o(i.IRQ100_Handler) for IRQ100_Handler
    startup_hc32f460.o(RESET) refers to hc32_ll_interrupts.o(i.IRQ101_Handler) for IRQ101_Handler
    startup_hc32f460.o(RESET) refers to hc32_ll_interrupts.o(i.IRQ102_Handler) for IRQ102_Handler
    startup_hc32f460.o(RESET) refers to hc32_ll_interrupts.o(i.IRQ103_Handler) for IRQ103_Handler
    startup_hc32f460.o(RESET) refers to hc32_ll_interrupts.o(i.IRQ104_Handler) for IRQ104_Handler
    startup_hc32f460.o(RESET) refers to hc32_ll_interrupts.o(i.IRQ105_Handler) for IRQ105_Handler
    startup_hc32f460.o(RESET) refers to hc32_ll_interrupts.o(i.IRQ106_Handler) for IRQ106_Handler
    startup_hc32f460.o(RESET) refers to hc32_ll_interrupts.o(i.IRQ107_Handler) for IRQ107_Handler
    startup_hc32f460.o(RESET) refers to hc32_ll_interrupts.o(i.IRQ108_Handler) for IRQ108_Handler
    startup_hc32f460.o(RESET) refers to hc32_ll_interrupts.o(i.IRQ109_Handler) for IRQ109_Handler
    startup_hc32f460.o(RESET) refers to hc32_ll_interrupts.o(i.IRQ110_Handler) for IRQ110_Handler
    startup_hc32f460.o(RESET) refers to hc32_ll_interrupts.o(i.IRQ111_Handler) for IRQ111_Handler
    startup_hc32f460.o(RESET) refers to hc32_ll_interrupts.o(i.IRQ112_Handler) for IRQ112_Handler
    startup_hc32f460.o(RESET) refers to hc32_ll_interrupts.o(i.IRQ113_Handler) for IRQ113_Handler
    startup_hc32f460.o(RESET) refers to hc32_ll_interrupts.o(i.IRQ114_Handler) for IRQ114_Handler
    startup_hc32f460.o(RESET) refers to hc32_ll_interrupts.o(i.IRQ115_Handler) for IRQ115_Handler
    startup_hc32f460.o(RESET) refers to hc32_ll_interrupts.o(i.IRQ116_Handler) for IRQ116_Handler
    startup_hc32f460.o(RESET) refers to hc32_ll_interrupts.o(i.IRQ117_Handler) for IRQ117_Handler
    startup_hc32f460.o(RESET) refers to hc32_ll_interrupts.o(i.IRQ118_Handler) for IRQ118_Handler
    startup_hc32f460.o(RESET) refers to hc32_ll_interrupts.o(i.IRQ119_Handler) for IRQ119_Handler
    startup_hc32f460.o(RESET) refers to hc32_ll_interrupts.o(i.IRQ120_Handler) for IRQ120_Handler
    startup_hc32f460.o(RESET) refers to hc32_ll_interrupts.o(i.IRQ121_Handler) for IRQ121_Handler
    startup_hc32f460.o(RESET) refers to hc32_ll_interrupts.o(i.IRQ122_Handler) for IRQ122_Handler
    startup_hc32f460.o(RESET) refers to hc32_ll_interrupts.o(i.IRQ123_Handler) for IRQ123_Handler
    startup_hc32f460.o(RESET) refers to hc32_ll_interrupts.o(i.IRQ124_Handler) for IRQ124_Handler
    startup_hc32f460.o(RESET) refers to hc32_ll_interrupts.o(i.IRQ125_Handler) for IRQ125_Handler
    startup_hc32f460.o(RESET) refers to hc32_ll_interrupts.o(i.IRQ126_Handler) for IRQ126_Handler
    startup_hc32f460.o(RESET) refers to hc32_ll_interrupts.o(i.IRQ127_Handler) for IRQ127_Handler
    startup_hc32f460.o(.text) refers to system_hc32f460.o(i.SystemInit) for SystemInit
    startup_hc32f460.o(.text) refers to entry.o(.ARM.Collect$$$$00000000) for __main
    cm_backtrace.o(i.cm_backtrace_assert) refers to printf8.o(i.__0printf$8) for __2printf
    cm_backtrace.o(i.cm_backtrace_assert) refers to cm_backtrace.o(i.cm_backtrace_firmware_info) for cm_backtrace_firmware_info
    cm_backtrace.o(i.cm_backtrace_assert) refers to cm_backtrace.o(i.dump_stack) for dump_stack
    cm_backtrace.o(i.cm_backtrace_assert) refers to cm_backtrace.o(i.print_call_stack) for print_call_stack
    cm_backtrace.o(i.cm_backtrace_assert) refers to cm_backtrace.o(.data) for init_ok
    cm_backtrace.o(i.cm_backtrace_assert) refers to cm_backtrace.o(.constdata) for __FUNCTION__
    cm_backtrace.o(i.cm_backtrace_call_stack) refers to cm_backtrace.o(i.disassembly_ins_is_bl_blx) for disassembly_ins_is_bl_blx
    cm_backtrace.o(i.cm_backtrace_call_stack) refers to cm_backtrace.o(.data) for main_stack_start_addr
    cm_backtrace.o(i.cm_backtrace_call_stack) refers to cm_backtrace.o(.bss) for regs
    cm_backtrace.o(i.cm_backtrace_call_stack_any) refers to cm_backtrace.o(i.disassembly_ins_is_bl_blx) for disassembly_ins_is_bl_blx
    cm_backtrace.o(i.cm_backtrace_call_stack_any) refers to cm_backtrace.o(.data) for code_start_addr
    cm_backtrace.o(i.cm_backtrace_fault) refers to memcpya.o(.text) for __aeabi_memcpy4
    cm_backtrace.o(i.cm_backtrace_fault) refers to printf8.o(i.__0printf$8) for __2printf
    cm_backtrace.o(i.cm_backtrace_fault) refers to cm_backtrace.o(i.cm_backtrace_firmware_info) for cm_backtrace_firmware_info
    cm_backtrace.o(i.cm_backtrace_fault) refers to cm_backtrace.o(i.statck_del_fpu_regs) for statck_del_fpu_regs
    cm_backtrace.o(i.cm_backtrace_fault) refers to cm_backtrace.o(i.dump_stack) for dump_stack
    cm_backtrace.o(i.cm_backtrace_fault) refers to cm_backtrace.o(i.fault_diagnosis) for fault_diagnosis
    cm_backtrace.o(i.cm_backtrace_fault) refers to cm_backtrace.o(i.print_call_stack) for print_call_stack
    cm_backtrace.o(i.cm_backtrace_fault) refers to cm_backtrace.o(.constdata) for .constdata
    cm_backtrace.o(i.cm_backtrace_fault) refers to cm_backtrace.o(.data) for main_stack_start_addr
    cm_backtrace.o(i.cm_backtrace_fault) refers to cm_backtrace.o(.conststring) for .conststring
    cm_backtrace.o(i.cm_backtrace_fault) refers to cm_backtrace.o(.bss) for regs
    cm_backtrace.o(i.cm_backtrace_firmware_info) refers to printf8.o(i.__0printf$8) for __2printf
    cm_backtrace.o(i.cm_backtrace_firmware_info) refers to cm_backtrace.o(.constdata) for print_info
    cm_backtrace.o(i.cm_backtrace_firmware_info) refers to cm_backtrace.o(.bss) for sw_ver
    cm_backtrace.o(i.cm_backtrace_init) refers to strncpy.o(.text) for strncpy
    cm_backtrace.o(i.cm_backtrace_init) refers to printf8.o(i.__0printf$8) for __2printf
    cm_backtrace.o(i.cm_backtrace_init) refers to cm_backtrace.o(.bss) for fw_name
    cm_backtrace.o(i.cm_backtrace_init) refers to cm_backtrace.o(.data) for main_stack_start_addr
    cm_backtrace.o(i.cm_backtrace_init) refers to cm_backtrace.o(.constdata) for print_info
    cm_backtrace.o(i.dump_stack) refers to printf8.o(i.__0printf$8) for __2printf
    cm_backtrace.o(i.dump_stack) refers to cm_backtrace.o(.data) for stack_is_overflow
    cm_backtrace.o(i.dump_stack) refers to cm_backtrace.o(.constdata) for print_info
    cm_backtrace.o(i.fault_diagnosis) refers to printf8.o(i.__0printf$8) for __2printf
    cm_backtrace.o(i.fault_diagnosis) refers to cm_backtrace.o(.bss) for regs
    cm_backtrace.o(i.fault_diagnosis) refers to cm_backtrace.o(.constdata) for print_info
    cm_backtrace.o(i.print_call_stack) refers to memseta.o(.text) for __aeabi_memclr4
    cm_backtrace.o(i.print_call_stack) refers to cm_backtrace.o(i.cm_backtrace_call_stack) for cm_backtrace_call_stack
    cm_backtrace.o(i.print_call_stack) refers to printf8.o(i.__0sprintf$8) for __2sprintf
    cm_backtrace.o(i.print_call_stack) refers to printf8.o(i.__0printf$8) for __2printf
    cm_backtrace.o(i.print_call_stack) refers to cm_backtrace.o(.bss) for call_stack_info
    cm_backtrace.o(i.print_call_stack) refers to cm_backtrace.o(.constdata) for print_info
    cm_backtrace.o(i.statck_del_fpu_regs) refers to cm_backtrace.o(.data) for statck_has_fpu_regs
    cm_backtrace.o(.constdata) refers to cm_backtrace.o(.conststring) for .conststring
    cmb_fault.o(.text) refers to cm_backtrace.o(i.cm_backtrace_fault) for cm_backtrace_fault
    entry.o(.ARM.Collect$$$$00000000) refers (Special) to entry10a.o(.ARM.Collect$$$$0000000D) for __rt_final_cpp
    entry.o(.ARM.Collect$$$$00000000) refers (Special) to entry11a.o(.ARM.Collect$$$$0000000F) for __rt_final_exit
    entry.o(.ARM.Collect$$$$00000000) refers (Special) to entry7b.o(.ARM.Collect$$$$00000008) for _main_clock
    entry.o(.ARM.Collect$$$$00000000) refers (Special) to entry8b.o(.ARM.Collect$$$$0000000A) for _main_cpp_init
    entry.o(.ARM.Collect$$$$00000000) refers (Special) to entry9a.o(.ARM.Collect$$$$0000000B) for _main_init
    entry.o(.ARM.Collect$$$$00000000) refers (Special) to entry5.o(.ARM.Collect$$$$00000004) for _main_scatterload
    entry.o(.ARM.Collect$$$$00000000) refers (Special) to entry2.o(.ARM.Collect$$$$00000001) for _main_stk
    putc.o(i.putc) refers to hc32_ll_utility.o(i.fputc) for fputc
    uldiv.o(.text) refers to llushr.o(.text) for __aeabi_llsr
    uldiv.o(.text) refers to llshl.o(.text) for __aeabi_llsl
    printfb.o(i.__0fprintf$bare) refers to printfb.o(i._printf_core) for _printf_core
    printfb.o(i.__0fprintf$bare) refers to hc32_ll_utility.o(i.fputc) for fputc
    printfb.o(i.__0printf$bare) refers to printfb.o(i._printf_core) for _printf_core
    printfb.o(i.__0printf$bare) refers to hc32_ll_utility.o(i.fputc) for fputc
    printfb.o(i.__0printf$bare) refers to stdout.o(.data) for __stdout
    printfb.o(i.__0snprintf$bare) refers to printfb.o(i._printf_core) for _printf_core
    printfb.o(i.__0snprintf$bare) refers to printfb.o(i._snputc) for _snputc
    printfb.o(i.__0sprintf$bare) refers to printfb.o(i._printf_core) for _printf_core
    printfb.o(i.__0sprintf$bare) refers to printfb.o(i._sputc) for _sputc
    printfb.o(i.__0vfprintf$bare) refers to printfb.o(i._printf_core) for _printf_core
    printfb.o(i.__0vfprintf$bare) refers to hc32_ll_utility.o(i.fputc) for fputc
    printfb.o(i.__0vprintf$bare) refers to printfb.o(i._printf_core) for _printf_core
    printfb.o(i.__0vprintf$bare) refers to hc32_ll_utility.o(i.fputc) for fputc
    printfb.o(i.__0vprintf$bare) refers to stdout.o(.data) for __stdout
    printfb.o(i.__0vsnprintf$bare) refers to printfb.o(i._printf_core) for _printf_core
    printfb.o(i.__0vsnprintf$bare) refers to printfb.o(i._snputc) for _snputc
    printfb.o(i.__0vsprintf$bare) refers to printfb.o(i._printf_core) for _printf_core
    printfb.o(i.__0vsprintf$bare) refers to printfb.o(i._sputc) for _sputc
    printf0.o(i.__0fprintf$0) refers to printf0.o(i._printf_core) for _printf_core
    printf0.o(i.__0fprintf$0) refers to hc32_ll_utility.o(i.fputc) for fputc
    printf0.o(i.__0printf$0) refers to printf0.o(i._printf_core) for _printf_core
    printf0.o(i.__0printf$0) refers to hc32_ll_utility.o(i.fputc) for fputc
    printf0.o(i.__0printf$0) refers to stdout.o(.data) for __stdout
    printf0.o(i.__0snprintf$0) refers to printf0.o(i._printf_core) for _printf_core
    printf0.o(i.__0snprintf$0) refers to printf0.o(i._snputc) for _snputc
    printf0.o(i.__0sprintf$0) refers to printf0.o(i._printf_core) for _printf_core
    printf0.o(i.__0sprintf$0) refers to printf0.o(i._sputc) for _sputc
    printf0.o(i.__0vfprintf$0) refers to printf0.o(i._printf_core) for _printf_core
    printf0.o(i.__0vfprintf$0) refers to hc32_ll_utility.o(i.fputc) for fputc
    printf0.o(i.__0vprintf$0) refers to printf0.o(i._printf_core) for _printf_core
    printf0.o(i.__0vprintf$0) refers to hc32_ll_utility.o(i.fputc) for fputc
    printf0.o(i.__0vprintf$0) refers to stdout.o(.data) for __stdout
    printf0.o(i.__0vsnprintf$0) refers to printf0.o(i._printf_core) for _printf_core
    printf0.o(i.__0vsnprintf$0) refers to printf0.o(i._snputc) for _snputc
    printf0.o(i.__0vsprintf$0) refers to printf0.o(i._printf_core) for _printf_core
    printf0.o(i.__0vsprintf$0) refers to printf0.o(i._sputc) for _sputc
    printf1.o(i.__0fprintf$1) refers to printf1.o(i._printf_core) for _printf_core
    printf1.o(i.__0fprintf$1) refers to hc32_ll_utility.o(i.fputc) for fputc
    printf1.o(i.__0printf$1) refers to printf1.o(i._printf_core) for _printf_core
    printf1.o(i.__0printf$1) refers to hc32_ll_utility.o(i.fputc) for fputc
    printf1.o(i.__0printf$1) refers to stdout.o(.data) for __stdout
    printf1.o(i.__0snprintf$1) refers to printf1.o(i._printf_core) for _printf_core
    printf1.o(i.__0snprintf$1) refers to printf1.o(i._snputc) for _snputc
    printf1.o(i.__0sprintf$1) refers to printf1.o(i._printf_core) for _printf_core
    printf1.o(i.__0sprintf$1) refers to printf1.o(i._sputc) for _sputc
    printf1.o(i.__0vfprintf$1) refers to printf1.o(i._printf_core) for _printf_core
    printf1.o(i.__0vfprintf$1) refers to hc32_ll_utility.o(i.fputc) for fputc
    printf1.o(i.__0vprintf$1) refers to printf1.o(i._printf_core) for _printf_core
    printf1.o(i.__0vprintf$1) refers to hc32_ll_utility.o(i.fputc) for fputc
    printf1.o(i.__0vprintf$1) refers to stdout.o(.data) for __stdout
    printf1.o(i.__0vsnprintf$1) refers to printf1.o(i._printf_core) for _printf_core
    printf1.o(i.__0vsnprintf$1) refers to printf1.o(i._snputc) for _snputc
    printf1.o(i.__0vsprintf$1) refers to printf1.o(i._printf_core) for _printf_core
    printf1.o(i.__0vsprintf$1) refers to printf1.o(i._sputc) for _sputc
    printf1.o(i._printf_core) refers to uidiv.o(.text) for __aeabi_uidivmod
    printf2.o(i.__0fprintf$2) refers to printf2.o(i._printf_core) for _printf_core
    printf2.o(i.__0fprintf$2) refers to hc32_ll_utility.o(i.fputc) for fputc
    printf2.o(i.__0printf$2) refers to printf2.o(i._printf_core) for _printf_core
    printf2.o(i.__0printf$2) refers to hc32_ll_utility.o(i.fputc) for fputc
    printf2.o(i.__0printf$2) refers to stdout.o(.data) for __stdout
    printf2.o(i.__0snprintf$2) refers to printf2.o(i._printf_core) for _printf_core
    printf2.o(i.__0snprintf$2) refers to printf2.o(i._snputc) for _snputc
    printf2.o(i.__0sprintf$2) refers to printf2.o(i._printf_core) for _printf_core
    printf2.o(i.__0sprintf$2) refers to printf2.o(i._sputc) for _sputc
    printf2.o(i.__0vfprintf$2) refers to printf2.o(i._printf_core) for _printf_core
    printf2.o(i.__0vfprintf$2) refers to hc32_ll_utility.o(i.fputc) for fputc
    printf2.o(i.__0vprintf$2) refers to printf2.o(i._printf_core) for _printf_core
    printf2.o(i.__0vprintf$2) refers to hc32_ll_utility.o(i.fputc) for fputc
    printf2.o(i.__0vprintf$2) refers to stdout.o(.data) for __stdout
    printf2.o(i.__0vsnprintf$2) refers to printf2.o(i._printf_core) for _printf_core
    printf2.o(i.__0vsnprintf$2) refers to printf2.o(i._snputc) for _snputc
    printf2.o(i.__0vsprintf$2) refers to printf2.o(i._printf_core) for _printf_core
    printf2.o(i.__0vsprintf$2) refers to printf2.o(i._sputc) for _sputc
    printf3.o(i.__0fprintf$3) refers to printf3.o(i._printf_core) for _printf_core
    printf3.o(i.__0fprintf$3) refers to hc32_ll_utility.o(i.fputc) for fputc
    printf3.o(i.__0printf$3) refers to printf3.o(i._printf_core) for _printf_core
    printf3.o(i.__0printf$3) refers to hc32_ll_utility.o(i.fputc) for fputc
    printf3.o(i.__0printf$3) refers to stdout.o(.data) for __stdout
    printf3.o(i.__0snprintf$3) refers to printf3.o(i._printf_core) for _printf_core
    printf3.o(i.__0snprintf$3) refers to printf3.o(i._snputc) for _snputc
    printf3.o(i.__0sprintf$3) refers to printf3.o(i._printf_core) for _printf_core
    printf3.o(i.__0sprintf$3) refers to printf3.o(i._sputc) for _sputc
    printf3.o(i.__0vfprintf$3) refers to printf3.o(i._printf_core) for _printf_core
    printf3.o(i.__0vfprintf$3) refers to hc32_ll_utility.o(i.fputc) for fputc
    printf3.o(i.__0vprintf$3) refers to printf3.o(i._printf_core) for _printf_core
    printf3.o(i.__0vprintf$3) refers to hc32_ll_utility.o(i.fputc) for fputc
    printf3.o(i.__0vprintf$3) refers to stdout.o(.data) for __stdout
    printf3.o(i.__0vsnprintf$3) refers to printf3.o(i._printf_core) for _printf_core
    printf3.o(i.__0vsnprintf$3) refers to printf3.o(i._snputc) for _snputc
    printf3.o(i.__0vsprintf$3) refers to printf3.o(i._printf_core) for _printf_core
    printf3.o(i.__0vsprintf$3) refers to printf3.o(i._sputc) for _sputc
    printf3.o(i._printf_core) refers to uidiv.o(.text) for __aeabi_uidivmod
    printf4.o(i.__0fprintf$4) refers to printf4.o(i._printf_core) for _printf_core
    printf4.o(i.__0fprintf$4) refers to hc32_ll_utility.o(i.fputc) for fputc
    printf4.o(i.__0printf$4) refers to printf4.o(i._printf_core) for _printf_core
    printf4.o(i.__0printf$4) refers to hc32_ll_utility.o(i.fputc) for fputc
    printf4.o(i.__0printf$4) refers to stdout.o(.data) for __stdout
    printf4.o(i.__0snprintf$4) refers to printf4.o(i._printf_core) for _printf_core
    printf4.o(i.__0snprintf$4) refers to printf4.o(i._snputc) for _snputc
    printf4.o(i.__0sprintf$4) refers to printf4.o(i._printf_core) for _printf_core
    printf4.o(i.__0sprintf$4) refers to printf4.o(i._sputc) for _sputc
    printf4.o(i.__0vfprintf$4) refers to printf4.o(i._printf_core) for _printf_core
    printf4.o(i.__0vfprintf$4) refers to hc32_ll_utility.o(i.fputc) for fputc
    printf4.o(i.__0vprintf$4) refers to printf4.o(i._printf_core) for _printf_core
    printf4.o(i.__0vprintf$4) refers to hc32_ll_utility.o(i.fputc) for fputc
    printf4.o(i.__0vprintf$4) refers to stdout.o(.data) for __stdout
    printf4.o(i.__0vsnprintf$4) refers to printf4.o(i._printf_core) for _printf_core
    printf4.o(i.__0vsnprintf$4) refers to printf4.o(i._snputc) for _snputc
    printf4.o(i.__0vsprintf$4) refers to printf4.o(i._printf_core) for _printf_core
    printf4.o(i.__0vsprintf$4) refers to printf4.o(i._sputc) for _sputc
    printf4.o(i._printf_core) refers to uldiv.o(.text) for __aeabi_uldivmod
    printf5.o(i.__0fprintf$5) refers to printf5.o(i._printf_core) for _printf_core
    printf5.o(i.__0fprintf$5) refers to hc32_ll_utility.o(i.fputc) for fputc
    printf5.o(i.__0printf$5) refers to printf5.o(i._printf_core) for _printf_core
    printf5.o(i.__0printf$5) refers to hc32_ll_utility.o(i.fputc) for fputc
    printf5.o(i.__0printf$5) refers to stdout.o(.data) for __stdout
    printf5.o(i.__0snprintf$5) refers to printf5.o(i._printf_core) for _printf_core
    printf5.o(i.__0snprintf$5) refers to printf5.o(i._snputc) for _snputc
    printf5.o(i.__0sprintf$5) refers to printf5.o(i._printf_core) for _printf_core
    printf5.o(i.__0sprintf$5) refers to printf5.o(i._sputc) for _sputc
    printf5.o(i.__0vfprintf$5) refers to printf5.o(i._printf_core) for _printf_core
    printf5.o(i.__0vfprintf$5) refers to hc32_ll_utility.o(i.fputc) for fputc
    printf5.o(i.__0vprintf$5) refers to printf5.o(i._printf_core) for _printf_core
    printf5.o(i.__0vprintf$5) refers to hc32_ll_utility.o(i.fputc) for fputc
    printf5.o(i.__0vprintf$5) refers to stdout.o(.data) for __stdout
    printf5.o(i.__0vsnprintf$5) refers to printf5.o(i._printf_core) for _printf_core
    printf5.o(i.__0vsnprintf$5) refers to printf5.o(i._snputc) for _snputc
    printf5.o(i.__0vsprintf$5) refers to printf5.o(i._printf_core) for _printf_core
    printf5.o(i.__0vsprintf$5) refers to printf5.o(i._sputc) for _sputc
    printf5.o(i._printf_core) refers to uldiv.o(.text) for __aeabi_uldivmod
    printf6.o(i.__0fprintf$6) refers to printf6.o(i._printf_core) for _printf_core
    printf6.o(i.__0fprintf$6) refers to hc32_ll_utility.o(i.fputc) for fputc
    printf6.o(i.__0printf$6) refers to printf6.o(i._printf_core) for _printf_core
    printf6.o(i.__0printf$6) refers to hc32_ll_utility.o(i.fputc) for fputc
    printf6.o(i.__0printf$6) refers to stdout.o(.data) for __stdout
    printf6.o(i.__0snprintf$6) refers to printf6.o(i._printf_core) for _printf_core
    printf6.o(i.__0snprintf$6) refers to printf6.o(i._snputc) for _snputc
    printf6.o(i.__0sprintf$6) refers to printf6.o(i._printf_core) for _printf_core
    printf6.o(i.__0sprintf$6) refers to printf6.o(i._sputc) for _sputc
    printf6.o(i.__0vfprintf$6) refers to printf6.o(i._printf_core) for _printf_core
    printf6.o(i.__0vfprintf$6) refers to hc32_ll_utility.o(i.fputc) for fputc
    printf6.o(i.__0vprintf$6) refers to printf6.o(i._printf_core) for _printf_core
    printf6.o(i.__0vprintf$6) refers to hc32_ll_utility.o(i.fputc) for fputc
    printf6.o(i.__0vprintf$6) refers to stdout.o(.data) for __stdout
    printf6.o(i.__0vsnprintf$6) refers to printf6.o(i._printf_core) for _printf_core
    printf6.o(i.__0vsnprintf$6) refers to printf6.o(i._snputc) for _snputc
    printf6.o(i.__0vsprintf$6) refers to printf6.o(i._printf_core) for _printf_core
    printf6.o(i.__0vsprintf$6) refers to printf6.o(i._sputc) for _sputc
    printf6.o(i._printf_core) refers to printf6.o(i._printf_pre_padding) for _printf_pre_padding
    printf6.o(i._printf_core) refers to uidiv.o(.text) for __aeabi_uidivmod
    printf6.o(i._printf_core) refers to printf6.o(i._printf_post_padding) for _printf_post_padding
    printf7.o(i.__0fprintf$7) refers to printf7.o(i._printf_core) for _printf_core
    printf7.o(i.__0fprintf$7) refers to hc32_ll_utility.o(i.fputc) for fputc
    printf7.o(i.__0printf$7) refers to printf7.o(i._printf_core) for _printf_core
    printf7.o(i.__0printf$7) refers to hc32_ll_utility.o(i.fputc) for fputc
    printf7.o(i.__0printf$7) refers to stdout.o(.data) for __stdout
    printf7.o(i.__0snprintf$7) refers to printf7.o(i._printf_core) for _printf_core
    printf7.o(i.__0snprintf$7) refers to printf7.o(i._snputc) for _snputc
    printf7.o(i.__0sprintf$7) refers to printf7.o(i._printf_core) for _printf_core
    printf7.o(i.__0sprintf$7) refers to printf7.o(i._sputc) for _sputc
    printf7.o(i.__0vfprintf$7) refers to printf7.o(i._printf_core) for _printf_core
    printf7.o(i.__0vfprintf$7) refers to hc32_ll_utility.o(i.fputc) for fputc
    printf7.o(i.__0vprintf$7) refers to printf7.o(i._printf_core) for _printf_core
    printf7.o(i.__0vprintf$7) refers to hc32_ll_utility.o(i.fputc) for fputc
    printf7.o(i.__0vprintf$7) refers to stdout.o(.data) for __stdout
    printf7.o(i.__0vsnprintf$7) refers to printf7.o(i._printf_core) for _printf_core
    printf7.o(i.__0vsnprintf$7) refers to printf7.o(i._snputc) for _snputc
    printf7.o(i.__0vsprintf$7) refers to printf7.o(i._printf_core) for _printf_core
    printf7.o(i.__0vsprintf$7) refers to printf7.o(i._sputc) for _sputc
    printf7.o(i._printf_core) refers to printf7.o(i._printf_pre_padding) for _printf_pre_padding
    printf7.o(i._printf_core) refers to uldiv.o(.text) for __aeabi_uldivmod
    printf7.o(i._printf_core) refers to printf7.o(i._printf_post_padding) for _printf_post_padding
    printf8.o(i.__0fprintf$8) refers to printf8.o(i._printf_core) for _printf_core
    printf8.o(i.__0fprintf$8) refers to hc32_ll_utility.o(i.fputc) for fputc
    printf8.o(i.__0printf$8) refers to printf8.o(i._printf_core) for _printf_core
    printf8.o(i.__0printf$8) refers to hc32_ll_utility.o(i.fputc) for fputc
    printf8.o(i.__0printf$8) refers to stdout.o(.data) for __stdout
    printf8.o(i.__0snprintf$8) refers to printf8.o(i._printf_core) for _printf_core
    printf8.o(i.__0snprintf$8) refers to printf8.o(i._snputc) for _snputc
    printf8.o(i.__0sprintf$8) refers to printf8.o(i._printf_core) for _printf_core
    printf8.o(i.__0sprintf$8) refers to printf8.o(i._sputc) for _sputc
    printf8.o(i.__0vfprintf$8) refers to printf8.o(i._printf_core) for _printf_core
    printf8.o(i.__0vfprintf$8) refers to hc32_ll_utility.o(i.fputc) for fputc
    printf8.o(i.__0vprintf$8) refers to printf8.o(i._printf_core) for _printf_core
    printf8.o(i.__0vprintf$8) refers to hc32_ll_utility.o(i.fputc) for fputc
    printf8.o(i.__0vprintf$8) refers to stdout.o(.data) for __stdout
    printf8.o(i.__0vsnprintf$8) refers to printf8.o(i._printf_core) for _printf_core
    printf8.o(i.__0vsnprintf$8) refers to printf8.o(i._snputc) for _snputc
    printf8.o(i.__0vsprintf$8) refers to printf8.o(i._printf_core) for _printf_core
    printf8.o(i.__0vsprintf$8) refers to printf8.o(i._sputc) for _sputc
    printf8.o(i._printf_core) refers to printf8.o(i._printf_pre_padding) for _printf_pre_padding
    printf8.o(i._printf_core) refers to uldiv.o(.text) for __aeabi_uldivmod
    printf8.o(i._printf_core) refers to printf8.o(i._printf_post_padding) for _printf_post_padding
    printfa.o(i.__0fprintf) refers (Special) to iusefp.o(.text) for __I$use$fp
    printfa.o(i.__0fprintf) refers to printfa.o(i._printf_core) for _printf_core
    printfa.o(i.__0fprintf) refers to hc32_ll_utility.o(i.fputc) for fputc
    printfa.o(i.__0printf) refers (Special) to iusefp.o(.text) for __I$use$fp
    printfa.o(i.__0printf) refers to printfa.o(i._printf_core) for _printf_core
    printfa.o(i.__0printf) refers to hc32_ll_utility.o(i.fputc) for fputc
    printfa.o(i.__0printf) refers to stdout.o(.data) for __stdout
    printfa.o(i.__0snprintf) refers (Special) to iusefp.o(.text) for __I$use$fp
    printfa.o(i.__0snprintf) refers to printfa.o(i._printf_core) for _printf_core
    printfa.o(i.__0snprintf) refers to printfa.o(i._snputc) for _snputc
    printfa.o(i.__0sprintf) refers (Special) to iusefp.o(.text) for __I$use$fp
    printfa.o(i.__0sprintf) refers to printfa.o(i._printf_core) for _printf_core
    printfa.o(i.__0sprintf) refers to printfa.o(i._sputc) for _sputc
    printfa.o(i.__0vfprintf) refers (Special) to iusefp.o(.text) for __I$use$fp
    printfa.o(i.__0vfprintf) refers to printfa.o(i._printf_core) for _printf_core
    printfa.o(i.__0vfprintf) refers to hc32_ll_utility.o(i.fputc) for fputc
    printfa.o(i.__0vprintf) refers (Special) to iusefp.o(.text) for __I$use$fp
    printfa.o(i.__0vprintf) refers to printfa.o(i._printf_core) for _printf_core
    printfa.o(i.__0vprintf) refers to hc32_ll_utility.o(i.fputc) for fputc
    printfa.o(i.__0vprintf) refers to stdout.o(.data) for __stdout
    printfa.o(i.__0vsnprintf) refers (Special) to iusefp.o(.text) for __I$use$fp
    printfa.o(i.__0vsnprintf) refers to printfa.o(i._printf_core) for _printf_core
    printfa.o(i.__0vsnprintf) refers to printfa.o(i._snputc) for _snputc
    printfa.o(i.__0vsprintf) refers (Special) to iusefp.o(.text) for __I$use$fp
    printfa.o(i.__0vsprintf) refers to printfa.o(i._printf_core) for _printf_core
    printfa.o(i.__0vsprintf) refers to printfa.o(i._sputc) for _sputc
    printfa.o(i._fp_digits) refers (Special) to iusefp.o(.text) for __I$use$fp
    printfa.o(i._fp_digits) refers to dmul.o(.text) for __aeabi_dmul
    printfa.o(i._fp_digits) refers to ddiv.o(.text) for __aeabi_ddiv
    printfa.o(i._fp_digits) refers to cdrcmple.o(.text) for __aeabi_cdrcmple
    printfa.o(i._fp_digits) refers to dadd.o(.text) for __aeabi_dadd
    printfa.o(i._fp_digits) refers to dfixul.o(.text) for __aeabi_d2ulz
    printfa.o(i._fp_digits) refers to uldiv.o(.text) for __aeabi_uldivmod
    printfa.o(i._printf_core) refers (Special) to iusefp.o(.text) for __I$use$fp
    printfa.o(i._printf_core) refers to printfa.o(i._printf_pre_padding) for _printf_pre_padding
    printfa.o(i._printf_core) refers to uldiv.o(.text) for __aeabi_uldivmod
    printfa.o(i._printf_core) refers to printfa.o(i._printf_post_padding) for _printf_post_padding
    printfa.o(i._printf_core) refers to printfa.o(i._fp_digits) for _fp_digits
    printfa.o(i._printf_core) refers to uidiv.o(.text) for __aeabi_uidivmod
    printfa.o(i._printf_post_padding) refers (Special) to iusefp.o(.text) for __I$use$fp
    printfa.o(i._printf_pre_padding) refers (Special) to iusefp.o(.text) for __I$use$fp
    printfa.o(i._snputc) refers (Special) to iusefp.o(.text) for __I$use$fp
    printfa.o(i._sputc) refers (Special) to iusefp.o(.text) for __I$use$fp
    ddiv.o(.text) refers (Special) to iusefp.o(.text) for __I$use$fp
    ddiv.o(.text) refers to depilogue.o(.text) for _double_round
    dfltui.o(.text) refers (Special) to iusefp.o(.text) for __I$use$fp
    dfltui.o(.text) refers to depilogue.o(.text) for _double_epilogue
    dfltul.o(.text) refers (Special) to iusefp.o(.text) for __I$use$fp
    dfltul.o(.text) refers to depilogue.o(.text) for _double_epilogue
    d2f.o(.text) refers (Special) to iusefp.o(.text) for __I$use$fp
    d2f.o(.text) refers to fepilogue.o(.text) for _float_round
    entry2.o(.ARM.Collect$$$$00000001) refers to entry2.o(.ARM.Collect$$$$00002712) for __lit__00000000
    entry2.o(.ARM.Collect$$$$00002712) refers to startup_hc32f460.o(STACK) for __initial_sp
    entry2.o(__vectab_stack_and_reset_area) refers to startup_hc32f460.o(STACK) for __initial_sp
    entry2.o(__vectab_stack_and_reset_area) refers to entry.o(.ARM.Collect$$$$00000000) for __main
    entry5.o(.ARM.Collect$$$$00000004) refers to init.o(.text) for __scatterload
    entry9a.o(.ARM.Collect$$$$0000000B) refers to system_hc32f460.o(i.$Sub$$main) for main
    entry9b.o(.ARM.Collect$$$$0000000C) refers to system_hc32f460.o(i.$Sub$$main) for main
    depilogue.o(.text) refers to llshl.o(.text) for __aeabi_llsl
    depilogue.o(.text) refers to llushr.o(.text) for __aeabi_llsr
    dadd.o(.text) refers to llshl.o(.text) for __aeabi_llsl
    dadd.o(.text) refers to llsshr.o(.text) for __aeabi_lasr
    dadd.o(.text) refers to depilogue.o(.text) for _double_epilogue
    dmul.o(.text) refers to depilogue.o(.text) for _double_epilogue
    dfixul.o(.text) refers to llushr.o(.text) for __aeabi_llsr
    dfixul.o(.text) refers to llshl.o(.text) for __aeabi_llsl
    init.o(.text) refers to entry5.o(.ARM.Collect$$$$00000004) for __main_after_scatterload


==============================================================================

Removing Unused input sections from the image.

    Removing hc32_ll.o(.rev16_text), (4 bytes).
    Removing hc32_ll.o(.revsh_text), (4 bytes).
    Removing hc32_ll.o(.rrx_text), (6 bytes).
    Removing hc32_ll.o(i.LL_PERIPH_WP), (136 bytes).
    Removing hc32_ll.o(i.PWC_REG_Lock), (28 bytes).
    Removing hc32_ll_clk.o(.rev16_text), (4 bytes).
    Removing hc32_ll_clk.o(.revsh_text), (4 bytes).
    Removing hc32_ll_clk.o(.rrx_text), (6 bytes).
    Removing hc32_ll_clk.o(i.CLK_ClearXtalStdStatus), (100 bytes).
    Removing hc32_ll_clk.o(i.CLK_GetBusClockFreq), (296 bytes).
    Removing hc32_ll_clk.o(i.CLK_GetClockFreq), (22 bytes).
    Removing hc32_ll_clk.o(i.CLK_GetPLLClockFreq), (332 bytes).
    Removing hc32_ll_clk.o(i.CLK_GetXtalStdStatus), (20 bytes).
    Removing hc32_ll_clk.o(i.CLK_HrcCmd), (200 bytes).
    Removing hc32_ll_clk.o(i.CLK_HrcTrim), (92 bytes).
    Removing hc32_ll_clk.o(i.CLK_LrcCmd), (160 bytes).
    Removing hc32_ll_clk.o(i.CLK_LrcTrim), (92 bytes).
    Removing hc32_ll_clk.o(i.CLK_MCOCmd), (156 bytes).
    Removing hc32_ll_clk.o(i.CLK_MCOConfig), (240 bytes).
    Removing hc32_ll_clk.o(i.CLK_MrcCmd), (156 bytes).
    Removing hc32_ll_clk.o(i.CLK_MrcTrim), (92 bytes).
    Removing hc32_ll_clk.o(i.CLK_PLLxCmd), (184 bytes).
    Removing hc32_ll_clk.o(i.CLK_PLLxInit), (56 bytes).
    Removing hc32_ll_clk.o(i.CLK_PLLxStructInit), (74 bytes).
    Removing hc32_ll_clk.o(i.CLK_SetI2SClockSrc), (224 bytes).
    Removing hc32_ll_clk.o(i.CLK_SetPLLSrc), (128 bytes).
    Removing hc32_ll_clk.o(i.CLK_SetPeriClockSrc), (164 bytes).
    Removing hc32_ll_clk.o(i.CLK_SetTpiuClockDiv), (136 bytes).
    Removing hc32_ll_clk.o(i.CLK_SetUSBClockSrc), (152 bytes).
    Removing hc32_ll_clk.o(i.CLK_TpiuClockCmd), (136 bytes).
    Removing hc32_ll_clk.o(i.CLK_Xtal32Cmd), (160 bytes).
    Removing hc32_ll_clk.o(i.CLK_Xtal32Init), (216 bytes).
    Removing hc32_ll_clk.o(i.CLK_Xtal32StructInit), (20 bytes).
    Removing hc32_ll_clk.o(i.CLK_XtalStdInit), (220 bytes).
    Removing hc32_ll_clk.o(i.CLK_XtalStdStructInit), (22 bytes).
    Removing hc32_ll_clk.o(i.GetClockFreq), (264 bytes).
    Removing hc32_ll_clk.o(i.PLLxParamCheck), (596 bytes).
    Removing hc32_ll_efm.o(.rev16_text), (4 bytes).
    Removing hc32_ll_efm.o(.revsh_text), (4 bytes).
    Removing hc32_ll_efm.o(.rrx_text), (6 bytes).
    Removing hc32_ll_efm.o(RAMCODE), (1068 bytes).
    Removing hc32_ll_efm.o(i.EFM_CacheCmd), (112 bytes).
    Removing hc32_ll_efm.o(i.EFM_Cmd), (156 bytes).
    Removing hc32_ll_efm.o(i.EFM_DataCacheResetCmd), (112 bytes).
    Removing hc32_ll_efm.o(i.EFM_GetAnyStatus), (104 bytes).
    Removing hc32_ll_efm.o(i.EFM_GetSwapStatus), (20 bytes).
    Removing hc32_ll_efm.o(i.EFM_GetUID), (32 bytes).
    Removing hc32_ll_efm.o(i.EFM_IntCmd), (164 bytes).
    Removing hc32_ll_efm.o(i.EFM_LowVoltageCmd), (84 bytes).
    Removing hc32_ll_efm.o(i.EFM_LowVoltageReadCmd), (112 bytes).
    Removing hc32_ll_efm.o(i.EFM_OTP_Lock), (304 bytes).
    Removing hc32_ll_efm.o(i.EFM_ProgramWord), (364 bytes).
    Removing hc32_ll_efm.o(i.EFM_ProgramWordReadBack), (392 bytes).
    Removing hc32_ll_efm.o(i.EFM_Protect_Enable), (68 bytes).
    Removing hc32_ll_efm.o(i.EFM_REMAP_Cmd), (160 bytes).
    Removing hc32_ll_efm.o(i.EFM_REMAP_DeInit), (92 bytes).
    Removing hc32_ll_efm.o(i.EFM_REMAP_Init), (284 bytes).
    Removing hc32_ll_efm.o(i.EFM_REMAP_SetAddr), (172 bytes).
    Removing hc32_ll_efm.o(i.EFM_REMAP_SetSize), (148 bytes).
    Removing hc32_ll_efm.o(i.EFM_REMAP_StructInit), (22 bytes).
    Removing hc32_ll_efm.o(i.EFM_ReadByte), (272 bytes).
    Removing hc32_ll_efm.o(i.EFM_SetBusStatus), (140 bytes).
    Removing hc32_ll_efm.o(i.EFM_SetOperateMode), (228 bytes).
    Removing hc32_ll_efm.o(i.EFM_SetWindowProtectAddr), (200 bytes).
    Removing hc32_ll_efm.o(i.EFM_SwapCmd), (372 bytes).
    Removing hc32_ll_efm.o(i.EFM_WriteSecurityCode), (400 bytes).
    Removing hc32_ll_gpio.o(.rev16_text), (4 bytes).
    Removing hc32_ll_gpio.o(.revsh_text), (4 bytes).
    Removing hc32_ll_gpio.o(.rrx_text), (6 bytes).
    Removing hc32_ll_gpio.o(i.GPIO_DeInit), (152 bytes).
    Removing hc32_ll_gpio.o(i.GPIO_InputMOSCmd), (192 bytes).
    Removing hc32_ll_gpio.o(i.GPIO_OutputCmd), (176 bytes).
    Removing hc32_ll_gpio.o(i.GPIO_ReadInputPort), (108 bytes).
    Removing hc32_ll_gpio.o(i.GPIO_ReadOutputPins), (140 bytes).
    Removing hc32_ll_gpio.o(i.GPIO_ReadOutputPort), (108 bytes).
    Removing hc32_ll_gpio.o(i.GPIO_SetDebugPort), (176 bytes).
    Removing hc32_ll_gpio.o(i.GPIO_SetSubFunc), (136 bytes).
    Removing hc32_ll_gpio.o(i.GPIO_SubFuncCmd), (212 bytes).
    Removing hc32_ll_gpio.o(i.GPIO_WritePort), (108 bytes).
    Removing hc32_ll_gpio.o(.constdata), (24 bytes).
    Removing hc32_ll_interrupts.o(.rev16_text), (4 bytes).
    Removing hc32_ll_interrupts.o(.revsh_text), (4 bytes).
    Removing hc32_ll_interrupts.o(.rrx_text), (6 bytes).
    Removing hc32_ll_interrupts.o(i.EXTINT_ClearExtIntStatus), (108 bytes).
    Removing hc32_ll_interrupts.o(i.EXTINT_GetExtIntStatus), (112 bytes).
    Removing hc32_ll_interrupts.o(i.EXTINT_Init), (264 bytes).
    Removing hc32_ll_interrupts.o(i.EXTINT_StructInit), (20 bytes).
    Removing hc32_ll_interrupts.o(i.INTC_EventCmd), (148 bytes).
    Removing hc32_ll_interrupts.o(i.INTC_IntCmd), (148 bytes).
    Removing hc32_ll_interrupts.o(i.INTC_IrqSignOut), (56 bytes).
    Removing hc32_ll_interrupts.o(i.INTC_SWIntCmd), (148 bytes).
    Removing hc32_ll_interrupts.o(i.INTC_SWIntInit), (160 bytes).
    Removing hc32_ll_interrupts.o(i.INTC_WakeupSrcCmd), (148 bytes).
    Removing hc32_ll_interrupts.o(i.NMI_ClearNmiStatus), (108 bytes).
    Removing hc32_ll_interrupts.o(i.NMI_GetNmiStatus), (112 bytes).
    Removing hc32_ll_interrupts.o(i.NMI_Init), (228 bytes).
    Removing hc32_ll_interrupts.o(i.NMI_NmiSrcCmd), (148 bytes).
    Removing hc32_ll_interrupts.o(i.NMI_StructInit), (22 bytes).
    Removing hc32_ll_pwc.o(.rev16_text), (4 bytes).
    Removing hc32_ll_pwc.o(.revsh_text), (4 bytes).
    Removing hc32_ll_pwc.o(.rrx_text), (6 bytes).
    Removing hc32_ll_pwc.o(RAMCODE), (84 bytes).
    Removing hc32_ll_pwc.o(i.PWC_ClockBackup), (244 bytes).
    Removing hc32_ll_pwc.o(i.PWC_ClockRecover), (172 bytes).
    Removing hc32_ll_pwc.o(i.PWC_HighPerformanceToHighSpeed), (120 bytes).
    Removing hc32_ll_pwc.o(i.PWC_HighPerformanceToLowSpeed), (240 bytes).
    Removing hc32_ll_pwc.o(i.PWC_HighSpeedToLowSpeed), (240 bytes).
    Removing hc32_ll_pwc.o(i.PWC_LDO_Cmd), (172 bytes).
    Removing hc32_ll_pwc.o(i.PWC_LVD_ClearStatus), (132 bytes).
    Removing hc32_ll_pwc.o(i.PWC_LVD_Cmd), (176 bytes).
    Removing hc32_ll_pwc.o(i.PWC_LVD_CompareOutputCmd), (180 bytes).
    Removing hc32_ll_pwc.o(i.PWC_LVD_DigitalFilterCmd), (180 bytes).
    Removing hc32_ll_pwc.o(i.PWC_LVD_ExtInputCmd), (148 bytes).
    Removing hc32_ll_pwc.o(i.PWC_LVD_GetStatus), (100 bytes).
    Removing hc32_ll_pwc.o(i.PWC_LVD_Init), (588 bytes).
    Removing hc32_ll_pwc.o(i.PWC_LVD_SetFilterClock), (180 bytes).
    Removing hc32_ll_pwc.o(i.PWC_LVD_SetThresholdVoltage), (196 bytes).
    Removing hc32_ll_pwc.o(i.PWC_LVD_StructInit), (32 bytes).
    Removing hc32_ll_pwc.o(i.PWC_LowSpeedToHighPerformance), (240 bytes).
    Removing hc32_ll_pwc.o(i.PWC_LowSpeedToHighSpeed), (240 bytes).
    Removing hc32_ll_pwc.o(i.PWC_PD_ClearWakeupStatus), (116 bytes).
    Removing hc32_ll_pwc.o(i.PWC_PD_Config), (148 bytes).
    Removing hc32_ll_pwc.o(i.PWC_PD_GetWakeupStatus), (120 bytes).
    Removing hc32_ll_pwc.o(i.PWC_PD_PeriphRamCmd), (172 bytes).
    Removing hc32_ll_pwc.o(i.PWC_PD_SetWakeupTriggerEdge), (172 bytes).
    Removing hc32_ll_pwc.o(i.PWC_PD_StructInit), (20 bytes).
    Removing hc32_ll_pwc.o(i.PWC_PD_VdrCmd), (148 bytes).
    Removing hc32_ll_pwc.o(i.PWC_PD_WakeupCmd), (84 bytes).
    Removing hc32_ll_pwc.o(i.PWC_PowerMonitorCmd), (148 bytes).
    Removing hc32_ll_pwc.o(i.PWC_RamModeConfig), (128 bytes).
    Removing hc32_ll_pwc.o(i.PWC_RetSram_PowerCmd), (148 bytes).
    Removing hc32_ll_pwc.o(i.PWC_SLEEP_Enter), (120 bytes).
    Removing hc32_ll_pwc.o(i.PWC_STOP_ClockBackup), (24 bytes).
    Removing hc32_ll_pwc.o(i.PWC_STOP_ClockRecover), (24 bytes).
    Removing hc32_ll_pwc.o(i.PWC_STOP_ClockSelect), (132 bytes).
    Removing hc32_ll_pwc.o(i.PWC_STOP_Config), (228 bytes).
    Removing hc32_ll_pwc.o(i.PWC_STOP_Enter), (136 bytes).
    Removing hc32_ll_pwc.o(i.PWC_STOP_FlashWaitCmd), (144 bytes).
    Removing hc32_ll_pwc.o(i.PWC_STOP_IrqClockBackup), (44 bytes).
    Removing hc32_ll_pwc.o(i.PWC_STOP_IrqClockRecover), (36 bytes).
    Removing hc32_ll_pwc.o(i.PWC_STOP_NvicBackup), (768 bytes).
    Removing hc32_ll_pwc.o(i.PWC_STOP_NvicRecover), (36 bytes).
    Removing hc32_ll_pwc.o(i.PWC_STOP_SetDrv), (132 bytes).
    Removing hc32_ll_pwc.o(i.PWC_STOP_StructInit), (20 bytes).
    Removing hc32_ll_pwc.o(i.PWC_SetSysClk), (196 bytes).
    Removing hc32_ll_pwc.o(i.PWC_WKT_ClearStatus), (104 bytes).
    Removing hc32_ll_pwc.o(i.PWC_WKT_Cmd), (148 bytes).
    Removing hc32_ll_pwc.o(i.PWC_WKT_Config), (156 bytes).
    Removing hc32_ll_pwc.o(i.PWC_WKT_GetCompareValue), (16 bytes).
    Removing hc32_ll_pwc.o(i.PWC_WKT_GetStatus), (24 bytes).
    Removing hc32_ll_pwc.o(i.PWC_WKT_SetCompareValue), (132 bytes).
    Removing hc32_ll_pwc.o(i.PWC_XTAL32_PowerCmd), (148 bytes).
    Removing hc32_ll_pwc.o(i.__NVIC_DisableIRQ), (36 bytes).
    Removing hc32_ll_pwc.o(.bss), (20 bytes).
    Removing hc32_ll_pwc.o(.data), (5 bytes).
    Removing hc32_ll_sram.o(.rev16_text), (4 bytes).
    Removing hc32_ll_sram.o(.revsh_text), (4 bytes).
    Removing hc32_ll_sram.o(.rrx_text), (6 bytes).
    Removing hc32_ll_sram.o(i.SRAM_ClearStatus), (96 bytes).
    Removing hc32_ll_sram.o(i.SRAM_DeInit), (132 bytes).
    Removing hc32_ll_sram.o(i.SRAM_GetStatus), (100 bytes).
    Removing hc32_ll_sram.o(i.SRAM_Init), (20 bytes).
    Removing hc32_ll_sram.o(i.SRAM_SetEccMode), (164 bytes).
    Removing hc32_ll_sram.o(i.SRAM_SetErrorMode), (152 bytes).
    Removing hc32_ll_usart.o(.rev16_text), (4 bytes).
    Removing hc32_ll_usart.o(.revsh_text), (4 bytes).
    Removing hc32_ll_usart.o(.rrx_text), (6 bytes).
    Removing hc32_ll_usart.o(i.USART_ClockSync_Init), (312 bytes).
    Removing hc32_ll_usart.o(i.USART_ClockSync_Receive), (260 bytes).
    Removing hc32_ll_usart.o(i.USART_ClockSync_StructInit), (34 bytes).
    Removing hc32_ll_usart.o(i.USART_ClockSync_Trans), (224 bytes).
    Removing hc32_ll_usart.o(i.USART_ClockSync_TransReceive), (244 bytes).
    Removing hc32_ll_usart.o(i.USART_DeInit), (132 bytes).
    Removing hc32_ll_usart.o(i.USART_FilterCmd), (160 bytes).
    Removing hc32_ll_usart.o(i.USART_GetClockDiv), (120 bytes).
    Removing hc32_ll_usart.o(i.USART_GetClockSrc), (120 bytes).
    Removing hc32_ll_usart.o(i.USART_GetStatus), (160 bytes).
    Removing hc32_ll_usart.o(i.USART_MultiProcessor_Init), (468 bytes).
    Removing hc32_ll_usart.o(i.USART_MultiProcessor_StructInit), (44 bytes).
    Removing hc32_ll_usart.o(i.USART_SetClockSrc), (156 bytes).
    Removing hc32_ll_usart.o(i.USART_SetDataWidth), (156 bytes).
    Removing hc32_ll_usart.o(i.USART_SetFirstBit), (156 bytes).
    Removing hc32_ll_usart.o(i.USART_SetHWFlowControl), (168 bytes).
    Removing hc32_ll_usart.o(i.USART_SetOverSampleBit), (156 bytes).
    Removing hc32_ll_usart.o(i.USART_SetParity), (160 bytes).
    Removing hc32_ll_usart.o(i.USART_SetStartBitPolarity), (152 bytes).
    Removing hc32_ll_usart.o(i.USART_SetStopBit), (156 bytes).
    Removing hc32_ll_usart.o(i.USART_SetTransType), (156 bytes).
    Removing hc32_ll_usart.o(i.USART_SilenceCmd), (160 bytes).
    Removing hc32_ll_usart.o(i.USART_SmartCard_Init), (256 bytes).
    Removing hc32_ll_usart.o(i.USART_SmartCard_SetEtuClock), (172 bytes).
    Removing hc32_ll_usart.o(i.USART_SmartCard_StructInit), (28 bytes).
    Removing hc32_ll_usart.o(i.USART_UART_Receive), (208 bytes).
    Removing hc32_ll_usart.o(i.USART_UART_Trans), (228 bytes).
    Removing hc32_ll_usart.o(i.USART_WaitStatus), (204 bytes).
    Removing hc32_ll_usart.o(i.USART_WriteData), (140 bytes).
    Removing hc32_ll_usart.o(i.USART_WriteID), (144 bytes).
    Removing hc32_ll_usart.o(i.USB_CDC_Receive), (8 bytes).
    Removing hc32_ll_utility.o(.rev16_text), (4 bytes).
    Removing hc32_ll_utility.o(.revsh_text), (4 bytes).
    Removing hc32_ll_utility.o(.rrx_text), (6 bytes).
    Removing hc32_ll_utility.o(i.SysTick_Delay), (76 bytes).
    Removing hc32_ll_utility.o(i.SysTick_GetTick), (12 bytes).
    Removing hc32_ll_utility.o(i.SysTick_IncTick), (24 bytes).
    Removing hc32_ll_utility.o(i.SysTick_Init), (144 bytes).
    Removing hc32_ll_utility.o(i.SysTick_Resume), (18 bytes).
    Removing hc32_ll_utility.o(i.SysTick_Suspend), (18 bytes).
    Removing hc32_ll_crc.o(.rev16_text), (4 bytes).
    Removing hc32_ll_crc.o(.revsh_text), (4 bytes).
    Removing hc32_ll_crc.o(.rrx_text), (6 bytes).
    Removing hc32_ll_fcg.o(.rev16_text), (4 bytes).
    Removing hc32_ll_fcg.o(.revsh_text), (4 bytes).
    Removing hc32_ll_fcg.o(.rrx_text), (6 bytes).
    Removing hc32_ll_fcg.o(i.FCG_Fcg3PeriphClockCmd), (136 bytes).
    Removing hc32_ll_tmr0.o(.rev16_text), (4 bytes).
    Removing hc32_ll_tmr0.o(.revsh_text), (4 bytes).
    Removing hc32_ll_tmr0.o(.rrx_text), (6 bytes).
    Removing hc32_ll_tmr0.o(i.TMR0_DeInit), (132 bytes).
    Removing hc32_ll_tmr0.o(i.TMR0_GetCompareValue), (128 bytes).
    Removing hc32_ll_tmr0.o(i.TMR0_GetCountValue), (124 bytes).
    Removing hc32_ll_tmr0.o(i.TMR0_GetStatus), (132 bytes).
    Removing hc32_ll_tmr0.o(i.TMR0_HWCaptureCondCmd), (172 bytes).
    Removing hc32_ll_tmr0.o(i.TMR0_SetClockDiv), (204 bytes).
    Removing hc32_ll_tmr0.o(i.TMR0_SetClockSrc), (184 bytes).
    Removing hc32_ll_tmr0.o(i.TMR0_SetCompareValue), (132 bytes).
    Removing hc32_ll_tmr0.o(i.TMR0_SetCountValue), (128 bytes).
    Removing hc32_ll_tmr0.o(i.TMR0_SetFunc), (176 bytes).
    Removing hc32_ll_i2c.o(.rev16_text), (4 bytes).
    Removing hc32_ll_i2c.o(.revsh_text), (4 bytes).
    Removing hc32_ll_i2c.o(.rrx_text), (6 bytes).
    Removing hc32_ll_i2c.o(i.I2C_AnalogFilterCmd), (132 bytes).
    Removing hc32_ll_i2c.o(i.I2C_DigitalFilterCmd), (132 bytes).
    Removing hc32_ll_i2c.o(i.I2C_DigitalFilterConfig), (132 bytes).
    Removing hc32_ll_i2c.o(i.I2C_FastAckCmd), (148 bytes).
    Removing hc32_ll_i2c.o(i.I2C_GeneralCallCmd), (132 bytes).
    Removing hc32_ll_i2c.o(i.I2C_IntCmd), (176 bytes).
    Removing hc32_ll_i2c.o(i.I2C_ReceiveData), (240 bytes).
    Removing hc32_ll_i2c.o(i.I2C_SCLHighTimeoutCmd), (148 bytes).
    Removing hc32_ll_i2c.o(i.I2C_SCLHighTimeoutConfig), (112 bytes).
    Removing hc32_ll_i2c.o(i.I2C_SCLLowTimeoutCmd), (148 bytes).
    Removing hc32_ll_i2c.o(i.I2C_SCLLowTimeoutConfig), (112 bytes).
    Removing hc32_ll_i2c.o(i.I2C_SCLTimeoutCmd), (148 bytes).
    Removing hc32_ll_i2c.o(i.I2C_SlaveAddrCmd), (168 bytes).
    Removing hc32_ll_i2c.o(i.I2C_SlaveAddrConfig), (248 bytes).
    Removing hc32_ll_i2c.o(i.I2C_SmbusCmd), (132 bytes).
    Removing hc32_ll_i2c.o(i.I2C_SmbusConfig), (172 bytes).
    Removing hc32_ll_i2c.o(i.I2C_Trans10BitAddr), (348 bytes).
    Removing hc32_ll_fcm.o(.rev16_text), (4 bytes).
    Removing hc32_ll_fcm.o(.revsh_text), (4 bytes).
    Removing hc32_ll_fcm.o(.rrx_text), (6 bytes).
    Removing hc32_ll_fcm.o(i.FCM_ClearStatus), (96 bytes).
    Removing hc32_ll_fcm.o(i.FCM_Cmd), (84 bytes).
    Removing hc32_ll_fcm.o(i.FCM_DeInit), (48 bytes).
    Removing hc32_ll_fcm.o(i.FCM_GetCountValue), (12 bytes).
    Removing hc32_ll_fcm.o(i.FCM_GetStatus), (100 bytes).
    Removing hc32_ll_fcm.o(i.FCM_Init), (472 bytes).
    Removing hc32_ll_fcm.o(i.FCM_IntCmd), (132 bytes).
    Removing hc32_ll_fcm.o(i.FCM_ResetCmd), (84 bytes).
    Removing hc32_ll_fcm.o(i.FCM_SetRefClock), (164 bytes).
    Removing hc32_ll_fcm.o(i.FCM_SetTargetClock), (148 bytes).
    Removing hc32_ll_fcm.o(i.FCM_StructInit), (38 bytes).
    Removing hc32_ll_icg.o(.rev16_text), (4 bytes).
    Removing hc32_ll_icg.o(.revsh_text), (4 bytes).
    Removing hc32_ll_icg.o(.rrx_text), (6 bytes).
    Removing hc32_ll_aos.o(.rev16_text), (4 bytes).
    Removing hc32_ll_aos.o(.revsh_text), (4 bytes).
    Removing hc32_ll_aos.o(.rrx_text), (6 bytes).
    Removing hc32_ll_aos.o(i.AOS_CommonTriggerCmd), (304 bytes).
    Removing hc32_ll_dma.o(.rev16_text), (4 bytes).
    Removing hc32_ll_dma.o(.revsh_text), (4 bytes).
    Removing hc32_ll_dma.o(.rrx_text), (6 bytes).
    Removing hc32_ll_dma.o(i.DMA_ClearErrStatus), (128 bytes).
    Removing hc32_ll_dma.o(i.DMA_DeInit), (224 bytes).
    Removing hc32_ll_dma.o(i.DMA_ErrIntCmd), (156 bytes).
    Removing hc32_ll_dma.o(i.DMA_GetBlockSize), (128 bytes).
    Removing hc32_ll_dma.o(i.DMA_GetDestAddr), (124 bytes).
    Removing hc32_ll_dma.o(i.DMA_GetDestRepeatSize), (128 bytes).
    Removing hc32_ll_dma.o(i.DMA_GetErrStatus), (132 bytes).
    Removing hc32_ll_dma.o(i.DMA_GetNonSeqDestCount), (132 bytes).
    Removing hc32_ll_dma.o(i.DMA_GetNonSeqDestOffset), (128 bytes).
    Removing hc32_ll_dma.o(i.DMA_GetNonSeqSrcCount), (132 bytes).
    Removing hc32_ll_dma.o(i.DMA_GetNonSeqSrcOffset), (128 bytes).
    Removing hc32_ll_dma.o(i.DMA_GetRequestStatus), (136 bytes).
    Removing hc32_ll_dma.o(i.DMA_GetSrcAddr), (124 bytes).
    Removing hc32_ll_dma.o(i.DMA_GetSrcRepeatSize), (128 bytes).
    Removing hc32_ll_dma.o(i.DMA_GetTransCompleteStatus), (96 bytes).
    Removing hc32_ll_dma.o(i.DMA_GetTransStatus), (136 bytes).
    Removing hc32_ll_dma.o(i.DMA_LlpCmd), (192 bytes).
    Removing hc32_ll_dma.o(i.DMA_NonSeqInit), (328 bytes).
    Removing hc32_ll_dma.o(i.DMA_NonSeqStructInit), (24 bytes).
    Removing hc32_ll_dma.o(i.DMA_ReconfigInit), (272 bytes).
    Removing hc32_ll_dma.o(i.DMA_ReconfigStructInit), (20 bytes).
    Removing hc32_ll_dma.o(i.DMA_RepeatInit), (260 bytes).
    Removing hc32_ll_dma.o(i.DMA_RepeatStructInit), (20 bytes).
    Removing hc32_ll_dma.o(i.DMA_SetBlockSize), (204 bytes).
    Removing hc32_ll_dma.o(i.DMA_SetDestAddr), (176 bytes).
    Removing hc32_ll_dma.o(i.DMA_SetDestRepeatSize), (204 bytes).
    Removing hc32_ll_dma.o(i.DMA_SetLlpAddr), (128 bytes).
    Removing hc32_ll_dma.o(i.DMA_SetNonSeqDestCount), (200 bytes).
    Removing hc32_ll_dma.o(i.DMA_SetNonSeqDestOffset), (204 bytes).
    Removing hc32_ll_dma.o(i.DMA_SetNonSeqSrcCount), (200 bytes).
    Removing hc32_ll_dma.o(i.DMA_SetNonSeqSrcOffset), (204 bytes).
    Removing hc32_ll_dma.o(i.DMA_SetSrcAddr), (176 bytes).
    Removing hc32_ll_dma.o(i.DMA_SetSrcRepeatSize), (204 bytes).
    Removing hc32_ll_dma.o(i.DMA_SetTransCount), (180 bytes).
    Removing ev_hc32f460_lqfp100_v2.o(.rev16_text), (4 bytes).
    Removing ev_hc32f460_lqfp100_v2.o(.revsh_text), (4 bytes).
    Removing ev_hc32f460_lqfp100_v2.o(.rrx_text), (6 bytes).
    Removing ev_hc32f460_lqfp100_v2.o(i.BSP_XTAL32_Init), (244 bytes).
    Removing main.o(.rev16_text), (4 bytes).
    Removing main.o(.revsh_text), (4 bytes).
    Removing main.o(.rrx_text), (6 bytes).
    Removing main.o(i.Read_Adv_7391Sw), (32 bytes).
    Removing main.o(i.enable_auto_detection), (60 bytes).
    Removing main.o(i.printBinary), (52 bytes).
    Removing main.o(.constdata), (6 bytes).
    Removing flash.o(.rev16_text), (4 bytes).
    Removing flash.o(.revsh_text), (4 bytes).
    Removing flash.o(.rrx_text), (6 bytes).
    Removing flash.o(i.FLASH_CheckAddrAlign), (26 bytes).
    Removing flash.o(.data), (4 bytes).
    Removing i2c.o(.rev16_text), (4 bytes).
    Removing i2c.o(.revsh_text), (4 bytes).
    Removing i2c.o(.rrx_text), (6 bytes).
    Removing i2c.o(i.I2C_Master_Receive), (132 bytes).
    Removing i2c.o(.data), (4 bytes).
    Removing uart_dma.o(.rev16_text), (4 bytes).
    Removing uart_dma.o(.revsh_text), (4 bytes).
    Removing uart_dma.o(.rrx_text), (6 bytes).
    Removing uart_dma.o(i.uart_dma_send), (68 bytes).
    Removing videoprocess.o(.rev16_text), (4 bytes).
    Removing videoprocess.o(.revsh_text), (4 bytes).
    Removing videoprocess.o(.rrx_text), (6 bytes).
    Removing videoprocess.o(i.Read_Video_key_change), (112 bytes).
    Removing videoprocess.o(i.SoftwareReset_ADV7280A), (66 bytes).
    Removing videoprocess.o(.bss), (500 bytes).
    Removing system_hc32f460.o(.rev16_text), (4 bytes).
    Removing system_hc32f460.o(.revsh_text), (4 bytes).
    Removing system_hc32f460.o(.rrx_text), (6 bytes).
    Removing startup_hc32f460.o(HEAP), (1024 bytes).
    Removing cm_backtrace.o(.emb_text), (16 bytes).
    Removing cm_backtrace.o(i.cm_backtrace_assert), (132 bytes).
    Removing cm_backtrace.o(i.cm_backtrace_call_stack_any), (112 bytes).
    Removing cm_backtrace.o(i.cm_backtrace_init), (160 bytes).
    Removing dadd.o(.text), (334 bytes).
    Removing dmul.o(.text), (228 bytes).
    Removing dfixul.o(.text), (48 bytes).
    Removing cdrcmple.o(.text), (48 bytes).

348 unused section(s) (total 43271 bytes) removed from the image.

==============================================================================

Image Symbol Table

    Local Symbols

    Symbol Name                              Value     Ov Type        Size  Object(Section)

    ../../drivers/bsp/ev_hc32f460_lqfp100_v2/ev_hc32f460_lqfp100_v2.c 0x00000000   Number         0  ev_hc32f460_lqfp100_v2.o ABSOLUTE
    ../../drivers/hc32_ll_driver/src/hc32_ll.c 0x00000000   Number         0  hc32_ll.o ABSOLUTE
    ../../drivers/hc32_ll_driver/src/hc32_ll_clk.c 0x00000000   Number         0  hc32_ll_clk.o ABSOLUTE
    ../../drivers/hc32_ll_driver/src/hc32_ll_efm.c 0x00000000   Number         0  hc32_ll_efm.o ABSOLUTE
    ../../drivers/hc32_ll_driver/src/hc32_ll_gpio.c 0x00000000   Number         0  hc32_ll_gpio.o ABSOLUTE
    ../../drivers/hc32_ll_driver/src/hc32_ll_interrupts.c 0x00000000   Number         0  hc32_ll_interrupts.o ABSOLUTE
    ../../drivers/hc32_ll_driver/src/hc32_ll_pwc.c 0x00000000   Number         0  hc32_ll_pwc.o ABSOLUTE
    ../../drivers/hc32_ll_driver/src/hc32_ll_sram.c 0x00000000   Number         0  hc32_ll_sram.o ABSOLUTE
    ../../drivers/hc32_ll_driver/src/hc32_ll_usart.c 0x00000000   Number         0  hc32_ll_usart.o ABSOLUTE
    ../../drivers/hc32_ll_driver/src/hc32_ll_utility.c 0x00000000   Number         0  hc32_ll_utility.o ABSOLUTE
    ../clib/../cmprslib/zerorunl2.c          0x00000000   Number         0  __dczerorl2.o ABSOLUTE
    ../clib/microlib/division.c              0x00000000   Number         0  uldiv.o ABSOLUTE
    ../clib/microlib/division.c              0x00000000   Number         0  uidiv.o ABSOLUTE
    ../clib/microlib/init/entry.s            0x00000000   Number         0  entry5.o ABSOLUTE
    ../clib/microlib/init/entry.s            0x00000000   Number         0  entry2.o ABSOLUTE
    ../clib/microlib/init/entry.s            0x00000000   Number         0  entry8b.o ABSOLUTE
    ../clib/microlib/init/entry.s            0x00000000   Number         0  entry11b.o ABSOLUTE
    ../clib/microlib/init/entry.s            0x00000000   Number         0  entry10a.o ABSOLUTE
    ../clib/microlib/init/entry.s            0x00000000   Number         0  entry10b.o ABSOLUTE
    ../clib/microlib/init/entry.s            0x00000000   Number         0  entry9b.o ABSOLUTE
    ../clib/microlib/init/entry.s            0x00000000   Number         0  entry9a.o ABSOLUTE
    ../clib/microlib/init/entry.s            0x00000000   Number         0  entry.o ABSOLUTE
    ../clib/microlib/init/entry.s            0x00000000   Number         0  entry8a.o ABSOLUTE
    ../clib/microlib/init/entry.s            0x00000000   Number         0  entry7b.o ABSOLUTE
    ../clib/microlib/init/entry.s            0x00000000   Number         0  entry11a.o ABSOLUTE
    ../clib/microlib/init/entry.s            0x00000000   Number         0  entry7a.o ABSOLUTE
    ../clib/microlib/longlong.c              0x00000000   Number         0  llushr.o ABSOLUTE
    ../clib/microlib/longlong.c              0x00000000   Number         0  llsshr.o ABSOLUTE
    ../clib/microlib/longlong.c              0x00000000   Number         0  llshl.o ABSOLUTE
    ../clib/microlib/printf/printf.c         0x00000000   Number         0  printfb.o ABSOLUTE
    ../clib/microlib/printf/printf.c         0x00000000   Number         0  printf5.o ABSOLUTE
    ../clib/microlib/printf/printf.c         0x00000000   Number         0  printf0.o ABSOLUTE
    ../clib/microlib/printf/printf.c         0x00000000   Number         0  printf1.o ABSOLUTE
    ../clib/microlib/printf/printf.c         0x00000000   Number         0  printf2.o ABSOLUTE
    ../clib/microlib/printf/printf.c         0x00000000   Number         0  printf3.o ABSOLUTE
    ../clib/microlib/printf/printf.c         0x00000000   Number         0  printf4.o ABSOLUTE
    ../clib/microlib/printf/printf.c         0x00000000   Number         0  printf6.o ABSOLUTE
    ../clib/microlib/printf/printf.c         0x00000000   Number         0  printf7.o ABSOLUTE
    ../clib/microlib/printf/printf.c         0x00000000   Number         0  printfa.o ABSOLUTE
    ../clib/microlib/printf/printf.c         0x00000000   Number         0  printf8.o ABSOLUTE
    ../clib/microlib/printf/stubs.s          0x00000000   Number         0  stubs.o ABSOLUTE
    ../clib/microlib/stdio/putc.c            0x00000000   Number         0  putc.o ABSOLUTE
    ../clib/microlib/stdio/streams.c         0x00000000   Number         0  stdout.o ABSOLUTE
    ../clib/microlib/string/memcpy.c         0x00000000   Number         0  memcpyb.o ABSOLUTE
    ../clib/microlib/string/memcpy.c         0x00000000   Number         0  memcpya.o ABSOLUTE
    ../clib/microlib/string/memset.c         0x00000000   Number         0  memseta.o ABSOLUTE
    ../clib/microlib/string/strncpy.c        0x00000000   Number         0  strncpy.o ABSOLUTE
    ../clib/microlib/stubs.s                 0x00000000   Number         0  iusefp.o ABSOLUTE
    ../fplib/microlib/d2f.c                  0x00000000   Number         0  d2f.o ABSOLUTE
    ../fplib/microlib/fpadd.c                0x00000000   Number         0  dadd.o ABSOLUTE
    ../fplib/microlib/fpdiv.c                0x00000000   Number         0  ddiv.o ABSOLUTE
    ../fplib/microlib/fpepilogue.c           0x00000000   Number         0  fepilogue.o ABSOLUTE
    ../fplib/microlib/fpepilogue.c           0x00000000   Number         0  depilogue.o ABSOLUTE
    ../fplib/microlib/fpfix.c                0x00000000   Number         0  dfixul.o ABSOLUTE
    ../fplib/microlib/fpflt.c                0x00000000   Number         0  dfltul.o ABSOLUTE
    ../fplib/microlib/fpflt.c                0x00000000   Number         0  dfltui.o ABSOLUTE
    ../fplib/microlib/fpmul.c                0x00000000   Number         0  dmul.o ABSOLUTE
    ..\..\drivers\bsp\ev_hc32f460_lqfp100_v2\ev_hc32f460_lqfp100_v2.c 0x00000000   Number         0  ev_hc32f460_lqfp100_v2.o ABSOLUTE
    ..\..\drivers\cmsis\Device\HDSC\hc32f4xx\Source\system_hc32f460.c 0x00000000   Number         0  system_hc32f460.o ABSOLUTE
    ..\..\drivers\hc32_ll_driver\src\hc32_ll.c 0x00000000   Number         0  hc32_ll.o ABSOLUTE
    ..\..\drivers\hc32_ll_driver\src\hc32_ll_aos.c 0x00000000   Number         0  hc32_ll_aos.o ABSOLUTE
    ..\..\drivers\hc32_ll_driver\src\hc32_ll_clk.c 0x00000000   Number         0  hc32_ll_clk.o ABSOLUTE
    ..\..\drivers\hc32_ll_driver\src\hc32_ll_crc.c 0x00000000   Number         0  hc32_ll_crc.o ABSOLUTE
    ..\..\drivers\hc32_ll_driver\src\hc32_ll_dma.c 0x00000000   Number         0  hc32_ll_dma.o ABSOLUTE
    ..\..\drivers\hc32_ll_driver\src\hc32_ll_efm.c 0x00000000   Number         0  hc32_ll_efm.o ABSOLUTE
    ..\..\drivers\hc32_ll_driver\src\hc32_ll_fcg.c 0x00000000   Number         0  hc32_ll_fcg.o ABSOLUTE
    ..\..\drivers\hc32_ll_driver\src\hc32_ll_fcm.c 0x00000000   Number         0  hc32_ll_fcm.o ABSOLUTE
    ..\..\drivers\hc32_ll_driver\src\hc32_ll_gpio.c 0x00000000   Number         0  hc32_ll_gpio.o ABSOLUTE
    ..\..\drivers\hc32_ll_driver\src\hc32_ll_i2c.c 0x00000000   Number         0  hc32_ll_i2c.o ABSOLUTE
    ..\..\drivers\hc32_ll_driver\src\hc32_ll_icg.c 0x00000000   Number         0  hc32_ll_icg.o ABSOLUTE
    ..\..\drivers\hc32_ll_driver\src\hc32_ll_interrupts.c 0x00000000   Number         0  hc32_ll_interrupts.o ABSOLUTE
    ..\..\drivers\hc32_ll_driver\src\hc32_ll_pwc.c 0x00000000   Number         0  hc32_ll_pwc.o ABSOLUTE
    ..\..\drivers\hc32_ll_driver\src\hc32_ll_sram.c 0x00000000   Number         0  hc32_ll_sram.o ABSOLUTE
    ..\..\drivers\hc32_ll_driver\src\hc32_ll_tmr0.c 0x00000000   Number         0  hc32_ll_tmr0.o ABSOLUTE
    ..\..\drivers\hc32_ll_driver\src\hc32_ll_usart.c 0x00000000   Number         0  hc32_ll_usart.o ABSOLUTE
    ..\..\drivers\hc32_ll_driver\src\hc32_ll_utility.c 0x00000000   Number         0  hc32_ll_utility.o ABSOLUTE
    ..\\..\\drivers\\cmsis\\Device\\HDSC\\hc32f4xx\\Source\\system_hc32f460.c 0x00000000   Number         0  system_hc32f460.o ABSOLUTE
    ..\\..\\drivers\\hc32_ll_driver\\src\\hc32_ll_aos.c 0x00000000   Number         0  hc32_ll_aos.o ABSOLUTE
    ..\\..\\drivers\\hc32_ll_driver\\src\\hc32_ll_crc.c 0x00000000   Number         0  hc32_ll_crc.o ABSOLUTE
    ..\\..\\drivers\\hc32_ll_driver\\src\\hc32_ll_dma.c 0x00000000   Number         0  hc32_ll_dma.o ABSOLUTE
    ..\\..\\drivers\\hc32_ll_driver\\src\\hc32_ll_fcg.c 0x00000000   Number         0  hc32_ll_fcg.o ABSOLUTE
    ..\\..\\drivers\\hc32_ll_driver\\src\\hc32_ll_fcm.c 0x00000000   Number         0  hc32_ll_fcm.o ABSOLUTE
    ..\\..\\drivers\\hc32_ll_driver\\src\\hc32_ll_i2c.c 0x00000000   Number         0  hc32_ll_i2c.o ABSOLUTE
    ..\\..\\drivers\\hc32_ll_driver\\src\\hc32_ll_icg.c 0x00000000   Number         0  hc32_ll_icg.o ABSOLUTE
    ..\\..\\drivers\\hc32_ll_driver\\src\\hc32_ll_tmr0.c 0x00000000   Number         0  hc32_ll_tmr0.o ABSOLUTE
    ..\\cm_backtrace\\cm_backtrace.c         0x00000000   Number         0  cm_backtrace.o ABSOLUTE
    ..\\source\\flash.c                      0x00000000   Number         0  flash.o ABSOLUTE
    ..\\source\\i2c.c                        0x00000000   Number         0  i2c.o ABSOLUTE
    ..\\source\\main.c                       0x00000000   Number         0  main.o ABSOLUTE
    ..\\source\\uart_dma.c                   0x00000000   Number         0  uart_dma.o ABSOLUTE
    ..\\source\\videoprocess.c               0x00000000   Number         0  videoprocess.o ABSOLUTE
    ..\cm_backtrace\cm_backtrace.c           0x00000000   Number         0  cm_backtrace.o ABSOLUTE
    ..\cm_backtrace\fault_handler\keil\cmb_fault.S 0x00000000   Number         0  cmb_fault.o ABSOLUTE
    ..\source\flash.c                        0x00000000   Number         0  flash.o ABSOLUTE
    ..\source\i2c.c                          0x00000000   Number         0  i2c.o ABSOLUTE
    ..\source\main.c                         0x00000000   Number         0  main.o ABSOLUTE
    ..\source\uart_dma.c                     0x00000000   Number         0  uart_dma.o ABSOLUTE
    ..\source\videoprocess.c                 0x00000000   Number         0  videoprocess.o ABSOLUTE
    cdrcmple.s                               0x00000000   Number         0  cdrcmple.o ABSOLUTE
    dc.s                                     0x00000000   Number         0  dc.o ABSOLUTE
    handlers.s                               0x00000000   Number         0  handlers.o ABSOLUTE
    init.s                                   0x00000000   Number         0  init.o ABSOLUTE
    startup_hc32f460.s                       0x00000000   Number         0  startup_hc32f460.o ABSOLUTE
    RESET                                    0x00010000   Section      640  startup_hc32f460.o(RESET)
    .ARM.Collect$$$$00000000                 0x00010280   Section        0  entry.o(.ARM.Collect$$$$00000000)
    .ARM.Collect$$$$00000001                 0x00010280   Section        4  entry2.o(.ARM.Collect$$$$00000001)
    .ARM.Collect$$$$00000004                 0x00010284   Section        4  entry5.o(.ARM.Collect$$$$00000004)
    .ARM.Collect$$$$00000008                 0x00010288   Section        0  entry7b.o(.ARM.Collect$$$$00000008)
    .ARM.Collect$$$$0000000A                 0x00010288   Section        0  entry8b.o(.ARM.Collect$$$$0000000A)
    .ARM.Collect$$$$0000000B                 0x00010288   Section        8  entry9a.o(.ARM.Collect$$$$0000000B)
    .ARM.Collect$$$$0000000D                 0x00010290   Section        0  entry10a.o(.ARM.Collect$$$$0000000D)
    .ARM.Collect$$$$0000000F                 0x00010290   Section        0  entry11a.o(.ARM.Collect$$$$0000000F)
    .ARM.Collect$$$$00002712                 0x00010290   Section        4  entry2.o(.ARM.Collect$$$$00002712)
    __lit__00000000                          0x00010290   Data           4  entry2.o(.ARM.Collect$$$$00002712)
    .text                                    0x00010294   Section       88  startup_hc32f460.o(.text)
    $v0                                      0x00010294   Number         0  startup_hc32f460.o(.text)
    .text                                    0x000102ec   Section       12  cmb_fault.o(.text)
    $v0                                      0x000102ec   Number         0  cmb_fault.o(.text)
    .text                                    0x000102f8   Section        0  uldiv.o(.text)
    .text                                    0x0001035a   Section        0  memcpya.o(.text)
    .text                                    0x0001037e   Section        0  memseta.o(.text)
    .text                                    0x000103a2   Section        0  ddiv.o(.text)
    .text                                    0x00010480   Section        0  dfltui.o(.text)
    .text                                    0x0001049a   Section        0  dfltul.o(.text)
    .text                                    0x000104b2   Section        0  d2f.o(.text)
    .text                                    0x000104ea   Section        0  llshl.o(.text)
    .text                                    0x00010508   Section        0  llushr.o(.text)
    .text                                    0x00010528   Section        0  fepilogue.o(.text)
    .text                                    0x00010528   Section        0  iusefp.o(.text)
    .text                                    0x00010596   Section        0  depilogue.o(.text)
    .text                                    0x00010650   Section       36  init.o(.text)
    .text                                    0x00010674   Section        0  __dczerorl2.o(.text)
    i.$Sub$$main                             0x000106ca   Section        0  system_hc32f460.o(i.$Sub$$main)
    i.ADV_7280_Send_Buff                     0x000106d8   Section        0  i2c.o(i.ADV_7280_Send_Buff)
    i.AOS_SetTriggerEventSrc                 0x00010760   Section        0  hc32_ll_aos.o(i.AOS_SetTriggerEventSrc)
    i.ASC                                    0x00010854   Section        0  videoprocess.o(i.ASC)
    i.ASC_Not02                              0x00010956   Section        0  videoprocess.o(i.ASC_Not02)
    i.AV_Connecte_Set                        0x00010a18   Section        0  videoprocess.o(i.AV_Connecte_Set)
    i.BSP_CLK_Init                           0x00010a9c   Section        0  ev_hc32f460_lqfp100_v2.o(i.BSP_CLK_Init)
    i.BSP_LED_Init                           0x00010b6c   Section        0  ev_hc32f460_lqfp100_v2.o(i.BSP_LED_Init)
    i.BSP_LED_Off                            0x00010b9e   Section        0  ev_hc32f460_lqfp100_v2.o(i.BSP_LED_Off)
    i.BSP_LED_On                             0x00010bce   Section        0  ev_hc32f460_lqfp100_v2.o(i.BSP_LED_On)
    i.BSP_LED_Sw                             0x00010bfe   Section        0  ev_hc32f460_lqfp100_v2.o(i.BSP_LED_Sw)
    i.BSP_LED_Toggle                         0x00010c4c   Section        0  ev_hc32f460_lqfp100_v2.o(i.BSP_LED_Toggle)
    i.BSP_PRINTF_Preinit                     0x00010c7c   Section        0  ev_hc32f460_lqfp100_v2.o(i.BSP_PRINTF_Preinit)
    i.CLK_GetStableStatus                    0x00010d1c   Section        0  hc32_ll_clk.o(i.CLK_GetStableStatus)
    i.CLK_PLLCmd                             0x00010d80   Section        0  hc32_ll_clk.o(i.CLK_PLLCmd)
    i.CLK_PLLInit                            0x00010e4c   Section        0  hc32_ll_clk.o(i.CLK_PLLInit)
    i.CLK_PLLStructInit                      0x000110f4   Section        0  hc32_ll_clk.o(i.CLK_PLLStructInit)
    i.CLK_SetClockDiv                        0x00011146   Section        0  hc32_ll_clk.o(i.CLK_SetClockDiv)
    i.CLK_SetSysClockSrc                     0x0001115a   Section        0  hc32_ll_clk.o(i.CLK_SetSysClockSrc)
    i.CLK_WaitStable                         0x0001116a   Section        0  hc32_ll_clk.o(i.CLK_WaitStable)
    CLK_WaitStable                           0x0001116b   Thumb Code    48  hc32_ll_clk.o(i.CLK_WaitStable)
    i.CLK_XtalCmd                            0x0001119c   Section        0  hc32_ll_clk.o(i.CLK_XtalCmd)
    i.CLK_XtalInit                           0x00011264   Section        0  hc32_ll_clk.o(i.CLK_XtalInit)
    i.CLK_XtalStructInit                     0x000113ac   Section        0  hc32_ll_clk.o(i.CLK_XtalStructInit)
    i.C_LED_ERR_BLUE                         0x000113cc   Section        0  ev_hc32f460_lqfp100_v2.o(i.C_LED_ERR_BLUE)
    i.C_LED_ERR_GREEN                        0x000113e4   Section        0  ev_hc32f460_lqfp100_v2.o(i.C_LED_ERR_GREEN)
    i.C_LED_ERR_RED                          0x000113fc   Section        0  ev_hc32f460_lqfp100_v2.o(i.C_LED_ERR_RED)
    i.C_LED_OK                               0x00011414   Section        0  ev_hc32f460_lqfp100_v2.o(i.C_LED_OK)
    i.Chip_Receive                           0x0001142c   Section        0  i2c.o(i.Chip_Receive)
    i.ClockSync_CalculateBrr                 0x000114f4   Section        0  hc32_ll_usart.o(i.ClockSync_CalculateBrr)
    ClockSync_CalculateBrr                   0x000114f5   Thumb Code   464  hc32_ll_usart.o(i.ClockSync_CalculateBrr)
    i.DDL_AssertHandler                      0x0001170c   Section        0  hc32_ll_utility.o(i.DDL_AssertHandler)
    i.DDL_ConsoleOutputChar                  0x00011750   Section        0  hc32_ll_utility.o(i.DDL_ConsoleOutputChar)
    i.DDL_DelayMS                            0x0001179c   Section        0  hc32_ll_utility.o(i.DDL_DelayMS)
    i.DDL_DelayUS                            0x000117dc   Section        0  hc32_ll_utility.o(i.DDL_DelayUS)
    i.DMA_ChCmd                              0x0001181c   Section        0  hc32_ll_dma.o(i.DMA_ChCmd)
    i.DMA_ClearTransCompleteStatus           0x00011a20   Section        0  hc32_ll_dma.o(i.DMA_ClearTransCompleteStatus)
    i.DMA_Cmd                                0x00011aa0   Section        0  hc32_ll_dma.o(i.DMA_Cmd)
    i.DMA_Config                             0x00011b10   Section        0  uart_dma.o(i.DMA_Config)
    i.DMA_GetTransCount                      0x00011cdc   Section        0  hc32_ll_dma.o(i.DMA_GetTransCount)
    i.DMA_Init                               0x00011d60   Section        0  hc32_ll_dma.o(i.DMA_Init)
    i.DMA_LlpInit                            0x00011ed0   Section        0  hc32_ll_dma.o(i.DMA_LlpInit)
    i.DMA_LlpStructInit                      0x00011fb8   Section        0  hc32_ll_dma.o(i.DMA_LlpStructInit)
    i.DMA_ReconfigCmd                        0x00011fcc   Section        0  hc32_ll_dma.o(i.DMA_ReconfigCmd)
    i.DMA_ReconfigLlpCmd                     0x00012054   Section        0  hc32_ll_dma.o(i.DMA_ReconfigLlpCmd)
    i.DMA_StructInit                         0x000120f4   Section        0  hc32_ll_dma.o(i.DMA_StructInit)
    i.DMA_TransCompleteIntCmd                0x00012118   Section        0  hc32_ll_dma.o(i.DMA_TransCompleteIntCmd)
    i.EFM_ClearStatus                        0x000121b8   Section        0  hc32_ll_efm.o(i.EFM_ClearStatus)
    i.EFM_FWMC_Cmd                           0x00012238   Section        0  hc32_ll_efm.o(i.EFM_FWMC_Cmd)
    i.EFM_GetStatus                          0x0001228c   Section        0  hc32_ll_efm.o(i.EFM_GetStatus)
    i.EFM_Program                            0x000122f4   Section        0  hc32_ll_efm.o(i.EFM_Program)
    i.EFM_SectorErase                        0x00012524   Section        0  hc32_ll_efm.o(i.EFM_SectorErase)
    i.EFM_SetWaitCycle                       0x00012668   Section        0  hc32_ll_efm.o(i.EFM_SetWaitCycle)
    i.EFM_WaitFlag                           0x00012724   Section        0  hc32_ll_efm.o(i.EFM_WaitFlag)
    EFM_WaitFlag                             0x00012725   Thumb Code    48  hc32_ll_efm.o(i.EFM_WaitFlag)
    i.FCG_Fcg0PeriphClockCmd                 0x00012754   Section        0  hc32_ll_fcg.o(i.FCG_Fcg0PeriphClockCmd)
    i.FCG_Fcg1PeriphClockCmd                 0x000127f4   Section        0  hc32_ll_fcg.o(i.FCG_Fcg1PeriphClockCmd)
    i.FCG_Fcg2PeriphClockCmd                 0x0001287c   Section        0  hc32_ll_fcg.o(i.FCG_Fcg2PeriphClockCmd)
    i.FLASH_EraseSector                      0x00012904   Section        0  flash.o(i.FLASH_EraseSector)
    i.FLASH_ReadData                         0x0001294c   Section        0  flash.o(i.FLASH_ReadData)
    i.FLASH_WriteData                        0x000129aa   Section        0  flash.o(i.FLASH_WriteData)
    i.GPIO_AnalogCmd                         0x000129dc   Section        0  hc32_ll_gpio.o(i.GPIO_AnalogCmd)
    i.GPIO_Init                              0x00012a98   Section        0  hc32_ll_gpio.o(i.GPIO_Init)
    i.GPIO_ReadInputPins                     0x00012c94   Section        0  hc32_ll_gpio.o(i.GPIO_ReadInputPins)
    i.GPIO_ResetPins                         0x00012d20   Section        0  hc32_ll_gpio.o(i.GPIO_ResetPins)
    i.GPIO_SetFunc                           0x00012da8   Section        0  hc32_ll_gpio.o(i.GPIO_SetFunc)
    i.GPIO_SetPins                           0x00012e80   Section        0  hc32_ll_gpio.o(i.GPIO_SetPins)
    i.GPIO_SetReadWaitCycle                  0x00012f08   Section        0  hc32_ll_gpio.o(i.GPIO_SetReadWaitCycle)
    i.GPIO_StructInit                        0x00012f98   Section        0  hc32_ll_gpio.o(i.GPIO_StructInit)
    i.GPIO_TogglePins                        0x00012fb8   Section        0  hc32_ll_gpio.o(i.GPIO_TogglePins)
    i.I2C_AckConfig                          0x00013040   Section        0  hc32_ll_i2c.o(i.I2C_AckConfig)
    i.I2C_BaudrateConfig                     0x000130cc   Section        0  hc32_ll_i2c.o(i.I2C_BaudrateConfig)
    i.I2C_BusWaitCmd                         0x000132f8   Section        0  hc32_ll_i2c.o(i.I2C_BusWaitCmd)
    i.I2C_ClearStatus                        0x0001338c   Section        0  hc32_ll_i2c.o(i.I2C_ClearStatus)
    i.I2C_Cmd                                0x00013414   Section        0  hc32_ll_i2c.o(i.I2C_Cmd)
    i.I2C_DeInit                             0x00013498   Section        0  hc32_ll_i2c.o(i.I2C_DeInit)
    i.I2C_GenerateRestart                    0x0001350c   Section        0  hc32_ll_i2c.o(i.I2C_GenerateRestart)
    i.I2C_GenerateStart                      0x00013578   Section        0  hc32_ll_i2c.o(i.I2C_GenerateStart)
    i.I2C_GenerateStop                       0x000135e4   Section        0  hc32_ll_i2c.o(i.I2C_GenerateStop)
    i.I2C_GetStatus                          0x00013650   Section        0  hc32_ll_i2c.o(i.I2C_GetStatus)
    i.I2C_Init                               0x000136e4   Section        0  hc32_ll_i2c.o(i.I2C_Init)
    i.I2C_MasterReceiveDataAndStop           0x000137d4   Section        0  hc32_ll_i2c.o(i.I2C_MasterReceiveDataAndStop)
    i.I2C_Master_Transmit                    0x000138ec   Section        0  i2c.o(i.I2C_Master_Transmit)
    i.I2C_ReadData                           0x00013960   Section        0  hc32_ll_i2c.o(i.I2C_ReadData)
    i.I2C_Restart                            0x000139c8   Section        0  hc32_ll_i2c.o(i.I2C_Restart)
    i.I2C_SWResetCmd                         0x00013a50   Section        0  hc32_ll_i2c.o(i.I2C_SWResetCmd)
    i.I2C_Start                              0x00013ad4   Section        0  hc32_ll_i2c.o(i.I2C_Start)
    i.I2C_Stop                               0x00013b68   Section        0  hc32_ll_i2c.o(i.I2C_Stop)
    i.I2C_StructInit                         0x00013c00   Section        0  hc32_ll_i2c.o(i.I2C_StructInit)
    i.I2C_TransAddr                          0x00013c18   Section        0  hc32_ll_i2c.o(i.I2C_TransAddr)
    i.I2C_TransData                          0x00013d04   Section        0  hc32_ll_i2c.o(i.I2C_TransData)
    i.I2C_WaitStatus                         0x00013dd4   Section        0  hc32_ll_i2c.o(i.I2C_WaitStatus)
    i.I2C_WriteData                          0x00013ea4   Section        0  hc32_ll_i2c.o(i.I2C_WriteData)
    i.INTC_IrqSignIn                         0x00013f10   Section        0  hc32_ll_interrupts.o(i.INTC_IrqSignIn)
    i.IRQ000_Handler                         0x00013ff8   Section        0  hc32_ll_interrupts.o(i.IRQ000_Handler)
    i.IRQ001_Handler                         0x0001400c   Section        0  hc32_ll_interrupts.o(i.IRQ001_Handler)
    i.IRQ002_Handler                         0x00014020   Section        0  hc32_ll_interrupts.o(i.IRQ002_Handler)
    i.IRQ003_Handler                         0x00014034   Section        0  hc32_ll_interrupts.o(i.IRQ003_Handler)
    i.IRQ004_Handler                         0x00014048   Section        0  hc32_ll_interrupts.o(i.IRQ004_Handler)
    i.IRQ005_Handler                         0x0001405c   Section        0  hc32_ll_interrupts.o(i.IRQ005_Handler)
    i.IRQ006_Handler                         0x00014070   Section        0  hc32_ll_interrupts.o(i.IRQ006_Handler)
    i.IRQ007_Handler                         0x00014084   Section        0  hc32_ll_interrupts.o(i.IRQ007_Handler)
    i.IRQ008_Handler                         0x00014098   Section        0  hc32_ll_interrupts.o(i.IRQ008_Handler)
    i.IRQ009_Handler                         0x000140ac   Section        0  hc32_ll_interrupts.o(i.IRQ009_Handler)
    i.IRQ010_Handler                         0x000140c0   Section        0  hc32_ll_interrupts.o(i.IRQ010_Handler)
    i.IRQ011_Handler                         0x000140d4   Section        0  hc32_ll_interrupts.o(i.IRQ011_Handler)
    i.IRQ012_Handler                         0x000140e8   Section        0  hc32_ll_interrupts.o(i.IRQ012_Handler)
    i.IRQ013_Handler                         0x000140fc   Section        0  hc32_ll_interrupts.o(i.IRQ013_Handler)
    i.IRQ014_Handler                         0x00014110   Section        0  hc32_ll_interrupts.o(i.IRQ014_Handler)
    i.IRQ015_Handler                         0x00014124   Section        0  hc32_ll_interrupts.o(i.IRQ015_Handler)
    i.IRQ016_Handler                         0x00014138   Section        0  hc32_ll_interrupts.o(i.IRQ016_Handler)
    i.IRQ017_Handler                         0x0001414c   Section        0  hc32_ll_interrupts.o(i.IRQ017_Handler)
    i.IRQ018_Handler                         0x00014160   Section        0  hc32_ll_interrupts.o(i.IRQ018_Handler)
    i.IRQ019_Handler                         0x00014174   Section        0  hc32_ll_interrupts.o(i.IRQ019_Handler)
    i.IRQ020_Handler                         0x00014188   Section        0  hc32_ll_interrupts.o(i.IRQ020_Handler)
    i.IRQ021_Handler                         0x0001419c   Section        0  hc32_ll_interrupts.o(i.IRQ021_Handler)
    i.IRQ022_Handler                         0x000141b0   Section        0  hc32_ll_interrupts.o(i.IRQ022_Handler)
    i.IRQ023_Handler                         0x000141c4   Section        0  hc32_ll_interrupts.o(i.IRQ023_Handler)
    i.IRQ024_Handler                         0x000141d8   Section        0  hc32_ll_interrupts.o(i.IRQ024_Handler)
    i.IRQ025_Handler                         0x000141ec   Section        0  hc32_ll_interrupts.o(i.IRQ025_Handler)
    i.IRQ026_Handler                         0x00014200   Section        0  hc32_ll_interrupts.o(i.IRQ026_Handler)
    i.IRQ027_Handler                         0x00014214   Section        0  hc32_ll_interrupts.o(i.IRQ027_Handler)
    i.IRQ028_Handler                         0x00014228   Section        0  hc32_ll_interrupts.o(i.IRQ028_Handler)
    i.IRQ029_Handler                         0x0001423c   Section        0  hc32_ll_interrupts.o(i.IRQ029_Handler)
    i.IRQ030_Handler                         0x00014250   Section        0  hc32_ll_interrupts.o(i.IRQ030_Handler)
    i.IRQ031_Handler                         0x00014264   Section        0  hc32_ll_interrupts.o(i.IRQ031_Handler)
    i.IRQ032_Handler                         0x00014278   Section        0  hc32_ll_interrupts.o(i.IRQ032_Handler)
    i.IRQ033_Handler                         0x0001428c   Section        0  hc32_ll_interrupts.o(i.IRQ033_Handler)
    i.IRQ034_Handler                         0x000142a0   Section        0  hc32_ll_interrupts.o(i.IRQ034_Handler)
    i.IRQ035_Handler                         0x000142b4   Section        0  hc32_ll_interrupts.o(i.IRQ035_Handler)
    i.IRQ036_Handler                         0x000142c8   Section        0  hc32_ll_interrupts.o(i.IRQ036_Handler)
    i.IRQ037_Handler                         0x000142dc   Section        0  hc32_ll_interrupts.o(i.IRQ037_Handler)
    i.IRQ038_Handler                         0x000142f0   Section        0  hc32_ll_interrupts.o(i.IRQ038_Handler)
    i.IRQ039_Handler                         0x00014304   Section        0  hc32_ll_interrupts.o(i.IRQ039_Handler)
    i.IRQ040_Handler                         0x00014318   Section        0  hc32_ll_interrupts.o(i.IRQ040_Handler)
    i.IRQ041_Handler                         0x0001432c   Section        0  hc32_ll_interrupts.o(i.IRQ041_Handler)
    i.IRQ042_Handler                         0x00014340   Section        0  hc32_ll_interrupts.o(i.IRQ042_Handler)
    i.IRQ043_Handler                         0x00014354   Section        0  hc32_ll_interrupts.o(i.IRQ043_Handler)
    i.IRQ044_Handler                         0x00014368   Section        0  hc32_ll_interrupts.o(i.IRQ044_Handler)
    i.IRQ045_Handler                         0x0001437c   Section        0  hc32_ll_interrupts.o(i.IRQ045_Handler)
    i.IRQ046_Handler                         0x00014390   Section        0  hc32_ll_interrupts.o(i.IRQ046_Handler)
    i.IRQ047_Handler                         0x000143a4   Section        0  hc32_ll_interrupts.o(i.IRQ047_Handler)
    i.IRQ048_Handler                         0x000143b8   Section        0  hc32_ll_interrupts.o(i.IRQ048_Handler)
    i.IRQ049_Handler                         0x000143cc   Section        0  hc32_ll_interrupts.o(i.IRQ049_Handler)
    i.IRQ050_Handler                         0x000143e0   Section        0  hc32_ll_interrupts.o(i.IRQ050_Handler)
    i.IRQ051_Handler                         0x000143f4   Section        0  hc32_ll_interrupts.o(i.IRQ051_Handler)
    i.IRQ052_Handler                         0x00014408   Section        0  hc32_ll_interrupts.o(i.IRQ052_Handler)
    i.IRQ053_Handler                         0x0001441c   Section        0  hc32_ll_interrupts.o(i.IRQ053_Handler)
    i.IRQ054_Handler                         0x00014430   Section        0  hc32_ll_interrupts.o(i.IRQ054_Handler)
    i.IRQ055_Handler                         0x00014444   Section        0  hc32_ll_interrupts.o(i.IRQ055_Handler)
    i.IRQ056_Handler                         0x00014458   Section        0  hc32_ll_interrupts.o(i.IRQ056_Handler)
    i.IRQ057_Handler                         0x0001446c   Section        0  hc32_ll_interrupts.o(i.IRQ057_Handler)
    i.IRQ058_Handler                         0x00014480   Section        0  hc32_ll_interrupts.o(i.IRQ058_Handler)
    i.IRQ059_Handler                         0x00014494   Section        0  hc32_ll_interrupts.o(i.IRQ059_Handler)
    i.IRQ060_Handler                         0x000144a8   Section        0  hc32_ll_interrupts.o(i.IRQ060_Handler)
    i.IRQ061_Handler                         0x000144bc   Section        0  hc32_ll_interrupts.o(i.IRQ061_Handler)
    i.IRQ062_Handler                         0x000144d0   Section        0  hc32_ll_interrupts.o(i.IRQ062_Handler)
    i.IRQ063_Handler                         0x000144e4   Section        0  hc32_ll_interrupts.o(i.IRQ063_Handler)
    i.IRQ064_Handler                         0x000144f8   Section        0  hc32_ll_interrupts.o(i.IRQ064_Handler)
    i.IRQ065_Handler                         0x0001450c   Section        0  hc32_ll_interrupts.o(i.IRQ065_Handler)
    i.IRQ066_Handler                         0x00014520   Section        0  hc32_ll_interrupts.o(i.IRQ066_Handler)
    i.IRQ067_Handler                         0x00014534   Section        0  hc32_ll_interrupts.o(i.IRQ067_Handler)
    i.IRQ068_Handler                         0x00014548   Section        0  hc32_ll_interrupts.o(i.IRQ068_Handler)
    i.IRQ069_Handler                         0x0001455c   Section        0  hc32_ll_interrupts.o(i.IRQ069_Handler)
    i.IRQ070_Handler                         0x00014570   Section        0  hc32_ll_interrupts.o(i.IRQ070_Handler)
    i.IRQ071_Handler                         0x00014584   Section        0  hc32_ll_interrupts.o(i.IRQ071_Handler)
    i.IRQ072_Handler                         0x00014598   Section        0  hc32_ll_interrupts.o(i.IRQ072_Handler)
    i.IRQ073_Handler                         0x000145ac   Section        0  hc32_ll_interrupts.o(i.IRQ073_Handler)
    i.IRQ074_Handler                         0x000145c0   Section        0  hc32_ll_interrupts.o(i.IRQ074_Handler)
    i.IRQ075_Handler                         0x000145d4   Section        0  hc32_ll_interrupts.o(i.IRQ075_Handler)
    i.IRQ076_Handler                         0x000145e8   Section        0  hc32_ll_interrupts.o(i.IRQ076_Handler)
    i.IRQ077_Handler                         0x000145fc   Section        0  hc32_ll_interrupts.o(i.IRQ077_Handler)
    i.IRQ078_Handler                         0x00014610   Section        0  hc32_ll_interrupts.o(i.IRQ078_Handler)
    i.IRQ079_Handler                         0x00014624   Section        0  hc32_ll_interrupts.o(i.IRQ079_Handler)
    i.IRQ080_Handler                         0x00014638   Section        0  hc32_ll_interrupts.o(i.IRQ080_Handler)
    i.IRQ081_Handler                         0x0001464c   Section        0  hc32_ll_interrupts.o(i.IRQ081_Handler)
    i.IRQ082_Handler                         0x00014660   Section        0  hc32_ll_interrupts.o(i.IRQ082_Handler)
    i.IRQ083_Handler                         0x00014674   Section        0  hc32_ll_interrupts.o(i.IRQ083_Handler)
    i.IRQ084_Handler                         0x00014688   Section        0  hc32_ll_interrupts.o(i.IRQ084_Handler)
    i.IRQ085_Handler                         0x0001469c   Section        0  hc32_ll_interrupts.o(i.IRQ085_Handler)
    i.IRQ086_Handler                         0x000146b0   Section        0  hc32_ll_interrupts.o(i.IRQ086_Handler)
    i.IRQ087_Handler                         0x000146c4   Section        0  hc32_ll_interrupts.o(i.IRQ087_Handler)
    i.IRQ088_Handler                         0x000146d8   Section        0  hc32_ll_interrupts.o(i.IRQ088_Handler)
    i.IRQ089_Handler                         0x000146ec   Section        0  hc32_ll_interrupts.o(i.IRQ089_Handler)
    i.IRQ090_Handler                         0x00014700   Section        0  hc32_ll_interrupts.o(i.IRQ090_Handler)
    i.IRQ091_Handler                         0x00014714   Section        0  hc32_ll_interrupts.o(i.IRQ091_Handler)
    i.IRQ092_Handler                         0x00014728   Section        0  hc32_ll_interrupts.o(i.IRQ092_Handler)
    i.IRQ093_Handler                         0x0001473c   Section        0  hc32_ll_interrupts.o(i.IRQ093_Handler)
    i.IRQ094_Handler                         0x00014750   Section        0  hc32_ll_interrupts.o(i.IRQ094_Handler)
    i.IRQ095_Handler                         0x00014764   Section        0  hc32_ll_interrupts.o(i.IRQ095_Handler)
    i.IRQ096_Handler                         0x00014778   Section        0  hc32_ll_interrupts.o(i.IRQ096_Handler)
    i.IRQ097_Handler                         0x0001478c   Section        0  hc32_ll_interrupts.o(i.IRQ097_Handler)
    i.IRQ098_Handler                         0x000147a0   Section        0  hc32_ll_interrupts.o(i.IRQ098_Handler)
    i.IRQ099_Handler                         0x000147b4   Section        0  hc32_ll_interrupts.o(i.IRQ099_Handler)
    i.IRQ100_Handler                         0x000147c8   Section        0  hc32_ll_interrupts.o(i.IRQ100_Handler)
    i.IRQ101_Handler                         0x000147dc   Section        0  hc32_ll_interrupts.o(i.IRQ101_Handler)
    i.IRQ102_Handler                         0x000147f0   Section        0  hc32_ll_interrupts.o(i.IRQ102_Handler)
    i.IRQ103_Handler                         0x00014804   Section        0  hc32_ll_interrupts.o(i.IRQ103_Handler)
    i.IRQ104_Handler                         0x00014818   Section        0  hc32_ll_interrupts.o(i.IRQ104_Handler)
    i.IRQ105_Handler                         0x0001482c   Section        0  hc32_ll_interrupts.o(i.IRQ105_Handler)
    i.IRQ106_Handler                         0x00014840   Section        0  hc32_ll_interrupts.o(i.IRQ106_Handler)
    i.IRQ107_Handler                         0x00014854   Section        0  hc32_ll_interrupts.o(i.IRQ107_Handler)
    i.IRQ108_Handler                         0x00014868   Section        0  hc32_ll_interrupts.o(i.IRQ108_Handler)
    i.IRQ109_Handler                         0x0001487c   Section        0  hc32_ll_interrupts.o(i.IRQ109_Handler)
    i.IRQ110_Handler                         0x00014890   Section        0  hc32_ll_interrupts.o(i.IRQ110_Handler)
    i.IRQ111_Handler                         0x000148a4   Section        0  hc32_ll_interrupts.o(i.IRQ111_Handler)
    i.IRQ112_Handler                         0x000148b8   Section        0  hc32_ll_interrupts.o(i.IRQ112_Handler)
    i.IRQ113_Handler                         0x000148cc   Section        0  hc32_ll_interrupts.o(i.IRQ113_Handler)
    i.IRQ114_Handler                         0x000148e0   Section        0  hc32_ll_interrupts.o(i.IRQ114_Handler)
    i.IRQ115_Handler                         0x000148f4   Section        0  hc32_ll_interrupts.o(i.IRQ115_Handler)
    i.IRQ116_Handler                         0x00014908   Section        0  hc32_ll_interrupts.o(i.IRQ116_Handler)
    i.IRQ117_Handler                         0x0001491c   Section        0  hc32_ll_interrupts.o(i.IRQ117_Handler)
    i.IRQ118_Handler                         0x00014930   Section        0  hc32_ll_interrupts.o(i.IRQ118_Handler)
    i.IRQ119_Handler                         0x00014944   Section        0  hc32_ll_interrupts.o(i.IRQ119_Handler)
    i.IRQ120_Handler                         0x00014958   Section        0  hc32_ll_interrupts.o(i.IRQ120_Handler)
    i.IRQ121_Handler                         0x0001496c   Section        0  hc32_ll_interrupts.o(i.IRQ121_Handler)
    i.IRQ122_Handler                         0x00014980   Section        0  hc32_ll_interrupts.o(i.IRQ122_Handler)
    i.IRQ123_Handler                         0x00014994   Section        0  hc32_ll_interrupts.o(i.IRQ123_Handler)
    i.IRQ124_Handler                         0x000149a8   Section        0  hc32_ll_interrupts.o(i.IRQ124_Handler)
    i.IRQ125_Handler                         0x000149bc   Section        0  hc32_ll_interrupts.o(i.IRQ125_Handler)
    i.IRQ126_Handler                         0x000149d0   Section        0  hc32_ll_interrupts.o(i.IRQ126_Handler)
    i.IRQ127_Handler                         0x000149e4   Section        0  hc32_ll_interrupts.o(i.IRQ127_Handler)
    i.Key_Init                               0x000149f8   Section        0  main.o(i.Key_Init)
    Key_Init                                 0x000149f9   Thumb Code    44  main.o(i.Key_Init)
    i.Key_Read                               0x00014a24   Section        0  main.o(i.Key_Read)
    Key_Read                                 0x00014a25   Thumb Code    74  main.o(i.Key_Read)
    i.LL_PERIPH_WE                           0x00014a74   Section        0  hc32_ll.o(i.LL_PERIPH_WE)
    i.LL_PrintfInit                          0x00014b04   Section        0  hc32_ll_utility.o(i.LL_PrintfInit)
    i.Master_Initialize                      0x00014bac   Section        0  i2c.o(i.Master_Initialize)
    i.PWC_HighSpeedToHighPerformance         0x00014c00   Section        0  hc32_ll_pwc.o(i.PWC_HighSpeedToHighPerformance)
    i.PWC_REG_Unlock                         0x00014c78   Section        0  hc32_ll.o(i.PWC_REG_Unlock)
    PWC_REG_Unlock                           0x00014c79   Thumb Code    14  hc32_ll.o(i.PWC_REG_Unlock)
    i.RX_DMA_TC_IrqCallback                  0x00014c90   Section        0  uart_dma.o(i.RX_DMA_TC_IrqCallback)
    RX_DMA_TC_IrqCallback                    0x00014c91   Thumb Code    36  uart_dma.o(i.RX_DMA_TC_IrqCallback)
    i.Read_ASW2                              0x00014cc4   Section        0  flash.o(i.Read_ASW2)
    i.Read_AVSW                              0x00014d08   Section        0  flash.o(i.Read_AVSW)
    i.Reser_Status                           0x00014d4c   Section        0  videoprocess.o(i.Reser_Status)
    i.SRAM_SetWaitCycle                      0x00014d58   Section        0  hc32_ll_sram.o(i.SRAM_SetWaitCycle)
    i.SetSysClockDiv                         0x00014e44   Section        0  hc32_ll_clk.o(i.SetSysClockDiv)
    SetSysClockDiv                           0x00014e45   Thumb Code   746  hc32_ll_clk.o(i.SetSysClockDiv)
    i.SetSysClockSrc                         0x00015174   Section        0  hc32_ll_clk.o(i.SetSysClockSrc)
    SetSysClockSrc                           0x00015175   Thumb Code   198  hc32_ll_clk.o(i.SetSysClockSrc)
    i.Signal_led                             0x0001527c   Section        0  videoprocess.o(i.Signal_led)
    i.SmartCard_CalculateBrr                 0x000152c4   Section        0  hc32_ll_usart.o(i.SmartCard_CalculateBrr)
    SmartCard_CalculateBrr                   0x000152c5   Thumb Code   568  hc32_ll_usart.o(i.SmartCard_CalculateBrr)
    i.SystemCoreClockUpdate                  0x00015548   Section        0  system_hc32f460.o(i.SystemCoreClockUpdate)
    i.SystemInit                             0x00015614   Section        0  system_hc32f460.o(i.SystemInit)
    i.TMR02_A_Config                         0x00015638   Section        0  ev_hc32f460_lqfp100_v2.o(i.TMR02_A_Config)
    i.TMR0_CHA_CompareIrqCallback            0x00015724   Section        0  ev_hc32f460_lqfp100_v2.o(i.TMR0_CHA_CompareIrqCallback)
    i.TMR0_ClearStatus                       0x000158d0   Section        0  hc32_ll_tmr0.o(i.TMR0_ClearStatus)
    i.TMR0_Config                            0x00015950   Section        0  uart_dma.o(i.TMR0_Config)
    i.TMR0_HWClearCondCmd                    0x000159d8   Section        0  hc32_ll_tmr0.o(i.TMR0_HWClearCondCmd)
    i.TMR0_HWStartCondCmd                    0x00015a84   Section        0  hc32_ll_tmr0.o(i.TMR0_HWStartCondCmd)
    i.TMR0_HWStopCondCmd                     0x00015b30   Section        0  hc32_ll_tmr0.o(i.TMR0_HWStopCondCmd)
    i.TMR0_Init                              0x00015bdc   Section        0  hc32_ll_tmr0.o(i.TMR0_Init)
    i.TMR0_IntCmd                            0x00015d30   Section        0  hc32_ll_tmr0.o(i.TMR0_IntCmd)
    i.TMR0_Start                             0x00015dd0   Section        0  hc32_ll_tmr0.o(i.TMR0_Start)
    i.TMR0_Stop                              0x00015e4c   Section        0  hc32_ll_tmr0.o(i.TMR0_Stop)
    i.TMR0_StructInit                        0x00015ecc   Section        0  hc32_ll_tmr0.o(i.TMR0_StructInit)
    i.TX_DMA_TC_IrqCallback                  0x00015ee8   Section        0  uart_dma.o(i.TX_DMA_TC_IrqCallback)
    TX_DMA_TC_IrqCallback                    0x00015ee9   Thumb Code    22  uart_dma.o(i.TX_DMA_TC_IrqCallback)
    i.UART_CalculateBrr                      0x00015f08   Section        0  hc32_ll_usart.o(i.UART_CalculateBrr)
    UART_CalculateBrr                        0x00015f09   Thumb Code   580  hc32_ll_usart.o(i.UART_CalculateBrr)
    i.USART_ClearStatus                      0x00016194   Section        0  hc32_ll_usart.o(i.USART_ClearStatus)
    i.USART_FuncCmd                          0x00016248   Section        0  hc32_ll_usart.o(i.USART_FuncCmd)
    i.USART_GetBusClockFreq                  0x00016308   Section        0  hc32_ll_usart.o(i.USART_GetBusClockFreq)
    USART_GetBusClockFreq                    0x00016309   Thumb Code    20  hc32_ll_usart.o(i.USART_GetBusClockFreq)
    i.USART_GetUsartClockFreq                0x00016324   Section        0  hc32_ll_usart.o(i.USART_GetUsartClockFreq)
    USART_GetUsartClockFreq                  0x00016325   Thumb Code    76  hc32_ll_usart.o(i.USART_GetUsartClockFreq)
    i.USART_ReadData                         0x000163b4   Section        0  hc32_ll_usart.o(i.USART_ReadData)
    i.USART_RxError_IrqCallback              0x00016428   Section        0  uart_dma.o(i.USART_RxError_IrqCallback)
    i.USART_RxTimeout_IrqCallback            0x00016440   Section        0  uart_dma.o(i.USART_RxTimeout_IrqCallback)
    i.USART_SetBaudrate                      0x00016498   Section        0  hc32_ll_usart.o(i.USART_SetBaudrate)
    i.USART_SetClockDiv                      0x000165b0   Section        0  hc32_ll_usart.o(i.USART_SetClockDiv)
    i.USART_TxComplete_IrqCallback           0x00016640   Section        0  uart_dma.o(i.USART_TxComplete_IrqCallback)
    i.USART_UART_Init                        0x0001667c   Section        0  hc32_ll_usart.o(i.USART_UART_Init)
    i.USART_UART_StructInit                  0x00016874   Section        0  hc32_ll_usart.o(i.USART_UART_StructInit)
    i.Video_ReadNot2                         0x000168a4   Section        0  flash.o(i.Video_ReadNot2)
    i.Video_Sw                               0x00016a40   Section        0  videoprocess.o(i.Video_Sw)
    i.__0printf$8                            0x00016a50   Section        0  printf8.o(i.__0printf$8)
    i.__0sprintf$8                           0x00016a70   Section        0  printf8.o(i.__0sprintf$8)
    i.__NVIC_ClearPendingIRQ                 0x00016a98   Section        0  uart_dma.o(i.__NVIC_ClearPendingIRQ)
    __NVIC_ClearPendingIRQ                   0x00016a99   Thumb Code    22  uart_dma.o(i.__NVIC_ClearPendingIRQ)
    i.__NVIC_EnableIRQ                       0x00016ab4   Section        0  uart_dma.o(i.__NVIC_EnableIRQ)
    __NVIC_EnableIRQ                         0x00016ab5   Thumb Code    34  uart_dma.o(i.__NVIC_EnableIRQ)
    i.__NVIC_SetPriority                     0x00016ad8   Section        0  uart_dma.o(i.__NVIC_SetPriority)
    __NVIC_SetPriority                       0x00016ad9   Thumb Code    32  uart_dma.o(i.__NVIC_SetPriority)
    i.__scatterload_copy                     0x00016b00   Section       14  handlers.o(i.__scatterload_copy)
    i.__scatterload_null                     0x00016b0e   Section        2  handlers.o(i.__scatterload_null)
    i.__scatterload_zeroinit                 0x00016b10   Section       14  handlers.o(i.__scatterload_zeroinit)
    i._printf_core                           0x00016b20   Section        0  printf8.o(i._printf_core)
    _printf_core                             0x00016b21   Thumb Code   996  printf8.o(i._printf_core)
    i._printf_post_padding                   0x00016f30   Section        0  printf8.o(i._printf_post_padding)
    _printf_post_padding                     0x00016f31   Thumb Code    36  printf8.o(i._printf_post_padding)
    i._printf_pre_padding                    0x00016f54   Section        0  printf8.o(i._printf_pre_padding)
    _printf_pre_padding                      0x00016f55   Thumb Code    46  printf8.o(i._printf_pre_padding)
    i._sputc                                 0x00016f82   Section        0  printf8.o(i._sputc)
    _sputc                                   0x00016f83   Thumb Code    10  printf8.o(i._sputc)
    i.cm_backtrace_call_stack                0x00016f8c   Section        0  cm_backtrace.o(i.cm_backtrace_call_stack)
    i.cm_backtrace_fault                     0x00017078   Section        0  cm_backtrace.o(i.cm_backtrace_fault)
    i.cm_backtrace_firmware_info             0x00017304   Section        0  cm_backtrace.o(i.cm_backtrace_firmware_info)
    i.detect_loop                            0x00017330   Section        0  videoprocess.o(i.detect_loop)
    i.disassembly_ins_is_bl_blx              0x000174bc   Section        0  cm_backtrace.o(i.disassembly_ins_is_bl_blx)
    disassembly_ins_is_bl_blx                0x000174bd   Thumb Code    48  cm_backtrace.o(i.disassembly_ins_is_bl_blx)
    i.dump_stack                             0x000174ec   Section        0  cm_backtrace.o(i.dump_stack)
    dump_stack                               0x000174ed   Thumb Code   136  cm_backtrace.o(i.dump_stack)
    i.fault_diagnosis                        0x000175c8   Section        0  cm_backtrace.o(i.fault_diagnosis)
    fault_diagnosis                          0x000175c9   Thumb Code   764  cm_backtrace.o(i.fault_diagnosis)
    i.fputc                                  0x000178d0   Section        0  hc32_ll_utility.o(i.fputc)
    i.get_mode                               0x000178e8   Section        0  uart_dma.o(i.get_mode)
    get_mode                                 0x000178e9   Thumb Code   670  uart_dma.o(i.get_mode)
    i.i2c_init                               0x00017c1c   Section        0  i2c.o(i.i2c_init)
    i.main                                   0x00017c84   Section        0  main.o(i.main)
    i.mem_settings                           0x00017dac   Section        0  flash.o(i.mem_settings)
    i.print_call_stack                       0x00017ee4   Section        0  cm_backtrace.o(i.print_call_stack)
    print_call_stack                         0x00017ee5   Thumb Code   118  cm_backtrace.o(i.print_call_stack)
    i.set_ace                                0x00017f7c   Section        0  videoprocess.o(i.set_ace)
    i.set_bcsh                               0x00017fc4   Section        0  videoprocess.o(i.set_bcsh)
    i.set_double_line                        0x00018054   Section        0  videoprocess.o(i.set_double_line)
    i.set_input                              0x0001809c   Section        0  videoprocess.o(i.set_input)
    i.set_smooth                             0x000180ec   Section        0  videoprocess.o(i.set_smooth)
    i.signal_turn                            0x0001813c   Section        0  uart_dma.o(i.signal_turn)
    i.statck_del_fpu_regs                    0x000187f8   Section        0  cm_backtrace.o(i.statck_del_fpu_regs)
    statck_del_fpu_regs                      0x000187f9   Thumb Code    30  cm_backtrace.o(i.statck_del_fpu_regs)
    i.uart_dma_init                          0x0001881c   Section        0  uart_dma.o(i.uart_dma_init)
    i.vd_Button_Init                         0x00018930   Section        0  main.o(i.vd_Button_Init)
    vd_Button_Init                           0x00018931   Thumb Code   290  main.o(i.vd_Button_Init)
    i.video_Deinit                           0x00018a5c   Section        0  videoprocess.o(i.video_Deinit)
    i.video_init                             0x00018a94   Section        0  videoprocess.o(i.video_init)
    .constdata                               0x00018bb4   Section       16  hc32_ll_usart.o(.constdata)
    .constdata                               0x00018bc4   Section       15  videoprocess.o(.constdata)
    .constdata                               0x00018bd4   Section      224  cm_backtrace.o(.constdata)
    print_info                               0x00018bd4   Data         152  cm_backtrace.o(.constdata)
    __FUNCTION__                             0x00018c6c   Data          20  cm_backtrace.o(.constdata)
    __FUNCTION__                             0x00018c80   Data          19  cm_backtrace.o(.constdata)
    .conststring                             0x00018cb4   Section     1638  cm_backtrace.o(.conststring)
    .data                                    0x1fff8000   Section       16  hc32_ll_utility.o(.data)
    m_u32TickStep                            0x1fff8000   Data           4  hc32_ll_utility.o(.data)
    m_u32TickCount                           0x1fff8004   Data           4  hc32_ll_utility.o(.data)
    m_pvPrintDevice                          0x1fff8008   Data           4  hc32_ll_utility.o(.data)
    m_u32PrintTimeout                        0x1fff800c   Data           4  hc32_ll_utility.o(.data)
    .data                                    0x1fff8010   Section        1  hc32_ll_dma.o(.data)
    u8DmaChEnState                           0x1fff8010   Data           1  hc32_ll_dma.o(.data)
    .data                                    0x1fff8014   Section       28  ev_hc32f460_lqfp100_v2.o(.data)
    m_enRxFrameEnd                           0x1fff8014   Data           1  ev_hc32f460_lqfp100_v2.o(.data)
    m_u16RxLen                               0x1fff8016   Data           2  ev_hc32f460_lqfp100_v2.o(.data)
    timer0_CHB_count                         0x1fff8028   Data           4  ev_hc32f460_lqfp100_v2.o(.data)
    u32TmrCnt                                0x1fff802c   Data           4  ev_hc32f460_lqfp100_v2.o(.data)
    .data                                    0x1fff8030   Section       38  main.o(.data)
    m_enRxFrameEnd                           0x1fff8030   Data           1  main.o(.data)
    m_u16RxLen                               0x1fff8032   Data           2  main.o(.data)
    BrightCount                              0x1fff8035   Data           1  main.o(.data)
    ContrastCount                            0x1fff8036   Data           1  main.o(.data)
    key_state                                0x1fff804f   Data           1  main.o(.data)
    key_state_last                           0x1fff8050   Data           1  main.o(.data)
    key_up                                   0x1fff8051   Data           1  main.o(.data)
    art                                      0x1fff8052   Data           2  main.o(.data)
    Input_signal_last                        0x1fff8054   Data           1  main.o(.data)
    count                                    0x1fff8055   Data           1  main.o(.data)
    .data                                    0x1fff8056   Section        4  uart_dma.o(.data)
    m_enRxFrameEnd                           0x1fff8056   Data           1  uart_dma.o(.data)
    m_u16RxLen                               0x1fff8058   Data           2  uart_dma.o(.data)
    .data                                    0x1fff805a   Section      366  videoprocess.o(.data)
    m_enRxFrameEnd                           0x1fff805a   Data           1  videoprocess.o(.data)
    m_u16RxLen                               0x1fff805c   Data           2  videoprocess.o(.data)
    status                                   0x1fff805e   Data           1  videoprocess.o(.data)
    key_state                                0x1fff81c4   Data           1  videoprocess.o(.data)
    key_state_last                           0x1fff81c5   Data           1  videoprocess.o(.data)
    key_line_state                           0x1fff81c6   Data           1  videoprocess.o(.data)
    key_state_line_last                      0x1fff81c7   Data           1  videoprocess.o(.data)
    .data                                    0x1fff81c8   Section        8  system_hc32f460.o(.data)
    .data                                    0x1fff81d0   Section       21  cm_backtrace.o(.data)
    main_stack_start_addr                    0x1fff81d0   Data           4  cm_backtrace.o(.data)
    main_stack_size                          0x1fff81d4   Data           4  cm_backtrace.o(.data)
    code_start_addr                          0x1fff81d8   Data           4  cm_backtrace.o(.data)
    code_size                                0x1fff81dc   Data           4  cm_backtrace.o(.data)
    init_ok                                  0x1fff81e0   Data           1  cm_backtrace.o(.data)
    on_fault                                 0x1fff81e1   Data           1  cm_backtrace.o(.data)
    stack_is_overflow                        0x1fff81e2   Data           1  cm_backtrace.o(.data)
    statck_has_fpu_regs                      0x1fff81e3   Data           1  cm_backtrace.o(.data)
    on_thread_before_fault                   0x1fff81e4   Data           1  cm_backtrace.o(.data)
    .data                                    0x1fff81e8   Section        4  stdout.o(.data)
    .bss                                     0x1fff81ec   Section      512  hc32_ll_interrupts.o(.bss)
    m_apfnIrqHandler                         0x1fff81ec   Data         512  hc32_ll_interrupts.o(.bss)
    .bss                                     0x1fff83ec   Section      256  flash.o(.bss)
    .bss                                     0x1fff84ec   Section      532  uart_dma.o(.bss)
    stcLlpDesc                               0x1fff86e0   Data          32  uart_dma.o(.bss)
    .bss                                     0x1fff8700   Section      456  cm_backtrace.o(.bss)
    fw_name                                  0x1fff8700   Data          33  cm_backtrace.o(.bss)
    hw_ver                                   0x1fff8721   Data          33  cm_backtrace.o(.bss)
    sw_ver                                   0x1fff8742   Data          33  cm_backtrace.o(.bss)
    call_stack_info                          0x1fff8763   Data         288  cm_backtrace.o(.bss)
    regs                                     0x1fff8884   Data          68  cm_backtrace.o(.bss)
    STACK                                    0x1fff88c8   Section     3072  startup_hc32f460.o(STACK)

    Global Symbols

    Symbol Name                              Value     Ov Type        Size  Object(Section)

    BuildAttributes$$THM_ISAv4$E$P$D$K$B$S$7EM$VFPi3$EXTD16$VFPS$VFMA$PE$A:L22UL41UL21$X:L11$S22US41US21$IEEE1$IW$USESV6$~STKCKD$USESV7$~SHL$OTIME$ROPI$EBA8$MICROLIB$REQ8$PRES8$EABIv2 0x00000000   Number         0  anon$$obj.o ABSOLUTE
    __ARM_use_no_argv                        0x00000000   Number         0  main.o ABSOLUTE
    _printf_a                                0x00000000   Number         0  stubs.o ABSOLUTE
    _printf_c                                0x00000000   Number         0  stubs.o ABSOLUTE
    _printf_charcount                        0x00000000   Number         0  stubs.o ABSOLUTE
    _printf_d                                0x00000000   Number         0  stubs.o ABSOLUTE
    _printf_e                                0x00000000   Number         0  stubs.o ABSOLUTE
    _printf_f                                0x00000000   Number         0  stubs.o ABSOLUTE
    _printf_flags                            0x00000000   Number         0  stubs.o ABSOLUTE
    _printf_fp_dec                           0x00000000   Number         0  stubs.o ABSOLUTE
    _printf_fp_hex                           0x00000000   Number         0  stubs.o ABSOLUTE
    _printf_g                                0x00000000   Number         0  stubs.o ABSOLUTE
    _printf_i                                0x00000000   Number         0  stubs.o ABSOLUTE
    _printf_int_dec                          0x00000000   Number         0  stubs.o ABSOLUTE
    _printf_l                                0x00000000   Number         0  stubs.o ABSOLUTE
    _printf_lc                               0x00000000   Number         0  stubs.o ABSOLUTE
    _printf_ll                               0x00000000   Number         0  stubs.o ABSOLUTE
    _printf_lld                              0x00000000   Number         0  stubs.o ABSOLUTE
    _printf_lli                              0x00000000   Number         0  stubs.o ABSOLUTE
    _printf_llo                              0x00000000   Number         0  stubs.o ABSOLUTE
    _printf_llu                              0x00000000   Number         0  stubs.o ABSOLUTE
    _printf_llx                              0x00000000   Number         0  stubs.o ABSOLUTE
    _printf_longlong_dec                     0x00000000   Number         0  stubs.o ABSOLUTE
    _printf_longlong_hex                     0x00000000   Number         0  stubs.o ABSOLUTE
    _printf_longlong_oct                     0x00000000   Number         0  stubs.o ABSOLUTE
    _printf_ls                               0x00000000   Number         0  stubs.o ABSOLUTE
    _printf_mbtowc                           0x00000000   Number         0  stubs.o ABSOLUTE
    _printf_n                                0x00000000   Number         0  stubs.o ABSOLUTE
    _printf_o                                0x00000000   Number         0  stubs.o ABSOLUTE
    _printf_p                                0x00000000   Number         0  stubs.o ABSOLUTE
    _printf_percent                          0x00000000   Number         0  stubs.o ABSOLUTE
    _printf_pre_padding                      0x00000000   Number         0  stubs.o ABSOLUTE
    _printf_return_value                     0x00000000   Number         0  stubs.o ABSOLUTE
    _printf_s                                0x00000000   Number         0  stubs.o ABSOLUTE
    _printf_sizespec                         0x00000000   Number         0  stubs.o ABSOLUTE
    _printf_str                              0x00000000   Number         0  stubs.o ABSOLUTE
    _printf_truncate_signed                  0x00000000   Number         0  stubs.o ABSOLUTE
    _printf_truncate_unsigned                0x00000000   Number         0  stubs.o ABSOLUTE
    _printf_u                                0x00000000   Number         0  stubs.o ABSOLUTE
    _printf_wc                               0x00000000   Number         0  stubs.o ABSOLUTE
    _printf_wctomb                           0x00000000   Number         0  stubs.o ABSOLUTE
    _printf_widthprec                        0x00000000   Number         0  stubs.o ABSOLUTE
    _printf_x                                0x00000000   Number         0  stubs.o ABSOLUTE
    __cpp_initialize__aeabi_                  - Undefined Weak Reference
    __cxa_finalize                            - Undefined Weak Reference
    _clock_init                               - Undefined Weak Reference
    _microlib_exit                            - Undefined Weak Reference
    __Vectors_Size                           0x00000280   Number         0  startup_hc32f460.o ABSOLUTE
    Image$$ER_IROM1$$Base                    0x00010000   Number         0  anon$$obj.o ABSOLUTE
    __Vectors                                0x00010000   Data           4  startup_hc32f460.o(RESET)
    __Vectors_End                            0x00010280   Data           0  startup_hc32f460.o(RESET)
    __main                                   0x00010281   Thumb Code     0  entry.o(.ARM.Collect$$$$00000000)
    _main_stk                                0x00010281   Thumb Code     0  entry2.o(.ARM.Collect$$$$00000001)
    _main_scatterload                        0x00010285   Thumb Code     0  entry5.o(.ARM.Collect$$$$00000004)
    __main_after_scatterload                 0x00010289   Thumb Code     0  entry5.o(.ARM.Collect$$$$00000004)
    _main_clock                              0x00010289   Thumb Code     0  entry7b.o(.ARM.Collect$$$$00000008)
    _main_cpp_init                           0x00010289   Thumb Code     0  entry8b.o(.ARM.Collect$$$$0000000A)
    _main_init                               0x00010289   Thumb Code     0  entry9a.o(.ARM.Collect$$$$0000000B)
    __rt_final_cpp                           0x00010291   Thumb Code     0  entry10a.o(.ARM.Collect$$$$0000000D)
    __rt_final_exit                          0x00010291   Thumb Code     0  entry11a.o(.ARM.Collect$$$$0000000F)
    Reset_Handler                            0x00010295   Thumb Code    48  startup_hc32f460.o(.text)
    NMI_Handler                              0x000102c5   Thumb Code     2  startup_hc32f460.o(.text)
    MemManage_Handler                        0x000102c9   Thumb Code     2  startup_hc32f460.o(.text)
    BusFault_Handler                         0x000102cb   Thumb Code     2  startup_hc32f460.o(.text)
    UsageFault_Handler                       0x000102cd   Thumb Code     2  startup_hc32f460.o(.text)
    SVC_Handler                              0x000102cf   Thumb Code     2  startup_hc32f460.o(.text)
    DebugMon_Handler                         0x000102d1   Thumb Code     2  startup_hc32f460.o(.text)
    PendSV_Handler                           0x000102d3   Thumb Code     2  startup_hc32f460.o(.text)
    SysTick_Handler                          0x000102d5   Thumb Code     2  startup_hc32f460.o(.text)
    IRQ128_Handler                           0x000102d7   Thumb Code     0  startup_hc32f460.o(.text)
    IRQ129_Handler                           0x000102d7   Thumb Code     0  startup_hc32f460.o(.text)
    IRQ130_Handler                           0x000102d7   Thumb Code     0  startup_hc32f460.o(.text)
    IRQ131_Handler                           0x000102d7   Thumb Code     0  startup_hc32f460.o(.text)
    IRQ132_Handler                           0x000102d7   Thumb Code     0  startup_hc32f460.o(.text)
    IRQ133_Handler                           0x000102d7   Thumb Code     0  startup_hc32f460.o(.text)
    IRQ134_Handler                           0x000102d7   Thumb Code     0  startup_hc32f460.o(.text)
    IRQ135_Handler                           0x000102d7   Thumb Code     0  startup_hc32f460.o(.text)
    IRQ136_Handler                           0x000102d7   Thumb Code     0  startup_hc32f460.o(.text)
    IRQ137_Handler                           0x000102d7   Thumb Code     0  startup_hc32f460.o(.text)
    IRQ138_Handler                           0x000102d7   Thumb Code     0  startup_hc32f460.o(.text)
    IRQ139_Handler                           0x000102d7   Thumb Code     0  startup_hc32f460.o(.text)
    IRQ140_Handler                           0x000102d7   Thumb Code     0  startup_hc32f460.o(.text)
    IRQ141_Handler                           0x000102d7   Thumb Code     0  startup_hc32f460.o(.text)
    IRQ142_Handler                           0x000102d7   Thumb Code     0  startup_hc32f460.o(.text)
    IRQ143_Handler                           0x000102d7   Thumb Code     0  startup_hc32f460.o(.text)
    HardFault_Handler                        0x000102ed   Thumb Code    12  cmb_fault.o(.text)
    __aeabi_uldivmod                         0x000102f9   Thumb Code    98  uldiv.o(.text)
    __aeabi_memcpy                           0x0001035b   Thumb Code    36  memcpya.o(.text)
    __aeabi_memcpy4                          0x0001035b   Thumb Code     0  memcpya.o(.text)
    __aeabi_memcpy8                          0x0001035b   Thumb Code     0  memcpya.o(.text)
    __aeabi_memset                           0x0001037f   Thumb Code    14  memseta.o(.text)
    __aeabi_memset4                          0x0001037f   Thumb Code     0  memseta.o(.text)
    __aeabi_memset8                          0x0001037f   Thumb Code     0  memseta.o(.text)
    __aeabi_memclr                           0x0001038d   Thumb Code     4  memseta.o(.text)
    __aeabi_memclr4                          0x0001038d   Thumb Code     0  memseta.o(.text)
    __aeabi_memclr8                          0x0001038d   Thumb Code     0  memseta.o(.text)
    _memset$wrapper                          0x00010391   Thumb Code    18  memseta.o(.text)
    __aeabi_ddiv                             0x000103a3   Thumb Code   222  ddiv.o(.text)
    __aeabi_ui2d                             0x00010481   Thumb Code    26  dfltui.o(.text)
    __aeabi_ul2d                             0x0001049b   Thumb Code    24  dfltul.o(.text)
    __aeabi_d2f                              0x000104b3   Thumb Code    56  d2f.o(.text)
    __aeabi_llsl                             0x000104eb   Thumb Code    30  llshl.o(.text)
    _ll_shift_l                              0x000104eb   Thumb Code     0  llshl.o(.text)
    __aeabi_llsr                             0x00010509   Thumb Code    32  llushr.o(.text)
    _ll_ushift_r                             0x00010509   Thumb Code     0  llushr.o(.text)
    __I$use$fp                               0x00010529   Thumb Code     0  iusefp.o(.text)
    _float_round                             0x00010529   Thumb Code    18  fepilogue.o(.text)
    _float_epilogue                          0x0001053b   Thumb Code    92  fepilogue.o(.text)
    _double_round                            0x00010597   Thumb Code    30  depilogue.o(.text)
    _double_epilogue                         0x000105b5   Thumb Code   156  depilogue.o(.text)
    __scatterload                            0x00010651   Thumb Code    28  init.o(.text)
    __scatterload_rt2                        0x00010651   Thumb Code     0  init.o(.text)
    __decompress                             0x00010675   Thumb Code     0  __dczerorl2.o(.text)
    __decompress1                            0x00010675   Thumb Code    86  __dczerorl2.o(.text)
    main                                     0x000106cb   Thumb Code    14  system_hc32f460.o(i.$Sub$$main)
    ADV_7280_Send_Buff                       0x000106d9   Thumb Code   132  i2c.o(i.ADV_7280_Send_Buff)
    AOS_SetTriggerEventSrc                   0x00010761   Thumb Code   192  hc32_ll_aos.o(i.AOS_SetTriggerEventSrc)
    ASC                                      0x00010855   Thumb Code   258  videoprocess.o(i.ASC)
    ASC_Not02                                0x00010957   Thumb Code   192  videoprocess.o(i.ASC_Not02)
    AV_Connecte_Set                          0x00010a19   Thumb Code   100  videoprocess.o(i.AV_Connecte_Set)
    BSP_CLK_Init                             0x00010a9d   Thumb Code   198  ev_hc32f460_lqfp100_v2.o(i.BSP_CLK_Init)
    BSP_LED_Init                             0x00010b6d   Thumb Code    50  ev_hc32f460_lqfp100_v2.o(i.BSP_LED_Init)
    BSP_LED_Off                              0x00010b9f   Thumb Code    48  ev_hc32f460_lqfp100_v2.o(i.BSP_LED_Off)
    BSP_LED_On                               0x00010bcf   Thumb Code    48  ev_hc32f460_lqfp100_v2.o(i.BSP_LED_On)
    BSP_LED_Sw                               0x00010bff   Thumb Code    78  ev_hc32f460_lqfp100_v2.o(i.BSP_LED_Sw)
    BSP_LED_Toggle                           0x00010c4d   Thumb Code    48  ev_hc32f460_lqfp100_v2.o(i.BSP_LED_Toggle)
    BSP_PRINTF_Preinit                       0x00010c7d   Thumb Code   148  ev_hc32f460_lqfp100_v2.o(i.BSP_PRINTF_Preinit)
    CLK_GetStableStatus                      0x00010d1d   Thumb Code    46  hc32_ll_clk.o(i.CLK_GetStableStatus)
    CLK_PLLCmd                               0x00010d81   Thumb Code   146  hc32_ll_clk.o(i.CLK_PLLCmd)
    CLK_PLLInit                              0x00010e4d   Thumb Code   596  hc32_ll_clk.o(i.CLK_PLLInit)
    CLK_PLLStructInit                        0x000110f5   Thumb Code    82  hc32_ll_clk.o(i.CLK_PLLStructInit)
    CLK_SetClockDiv                          0x00011147   Thumb Code    20  hc32_ll_clk.o(i.CLK_SetClockDiv)
    CLK_SetSysClockSrc                       0x0001115b   Thumb Code    16  hc32_ll_clk.o(i.CLK_SetSysClockSrc)
    CLK_XtalCmd                              0x0001119d   Thumb Code   144  hc32_ll_clk.o(i.CLK_XtalCmd)
    CLK_XtalInit                             0x00011265   Thumb Code   272  hc32_ll_clk.o(i.CLK_XtalInit)
    CLK_XtalStructInit                       0x000113ad   Thumb Code    30  hc32_ll_clk.o(i.CLK_XtalStructInit)
    C_LED_ERR_BLUE                           0x000113cd   Thumb Code    18  ev_hc32f460_lqfp100_v2.o(i.C_LED_ERR_BLUE)
    C_LED_ERR_GREEN                          0x000113e5   Thumb Code    18  ev_hc32f460_lqfp100_v2.o(i.C_LED_ERR_GREEN)
    C_LED_ERR_RED                            0x000113fd   Thumb Code    18  ev_hc32f460_lqfp100_v2.o(i.C_LED_ERR_RED)
    C_LED_OK                                 0x00011415   Thumb Code    18  ev_hc32f460_lqfp100_v2.o(i.C_LED_OK)
    Chip_Receive                             0x0001142d   Thumb Code   196  i2c.o(i.Chip_Receive)
    DDL_AssertHandler                        0x0001170d   Thumb Code    18  hc32_ll_utility.o(i.DDL_AssertHandler)
    DDL_ConsoleOutputChar                    0x00011751   Thumb Code    68  hc32_ll_utility.o(i.DDL_ConsoleOutputChar)
    DDL_DelayMS                              0x0001179d   Thumb Code    54  hc32_ll_utility.o(i.DDL_DelayMS)
    DDL_DelayUS                              0x000117dd   Thumb Code    52  hc32_ll_utility.o(i.DDL_DelayUS)
    DMA_ChCmd                                0x0001181d   Thumb Code   454  hc32_ll_dma.o(i.DMA_ChCmd)
    DMA_ClearTransCompleteStatus             0x00011a21   Thumb Code    70  hc32_ll_dma.o(i.DMA_ClearTransCompleteStatus)
    DMA_Cmd                                  0x00011aa1   Thumb Code    56  hc32_ll_dma.o(i.DMA_Cmd)
    DMA_Config                               0x00011b11   Thumb Code   426  uart_dma.o(i.DMA_Config)
    DMA_GetTransCount                        0x00011cdd   Thumb Code    74  hc32_ll_dma.o(i.DMA_GetTransCount)
    DMA_Init                                 0x00011d61   Thumb Code   310  hc32_ll_dma.o(i.DMA_Init)
    DMA_LlpInit                              0x00011ed1   Thumb Code   176  hc32_ll_dma.o(i.DMA_LlpInit)
    DMA_LlpStructInit                        0x00011fb9   Thumb Code    20  hc32_ll_dma.o(i.DMA_LlpStructInit)
    DMA_ReconfigCmd                          0x00011fcd   Thumb Code    80  hc32_ll_dma.o(i.DMA_ReconfigCmd)
    DMA_ReconfigLlpCmd                       0x00012055   Thumb Code   104  hc32_ll_dma.o(i.DMA_ReconfigLlpCmd)
    DMA_StructInit                           0x000120f5   Thumb Code    34  hc32_ll_dma.o(i.DMA_StructInit)
    DMA_TransCompleteIntCmd                  0x00012119   Thumb Code   104  hc32_ll_dma.o(i.DMA_TransCompleteIntCmd)
    EFM_ClearStatus                          0x000121b9   Thumb Code    74  hc32_ll_efm.o(i.EFM_ClearStatus)
    EFM_FWMC_Cmd                             0x00012239   Thumb Code    32  hc32_ll_efm.o(i.EFM_FWMC_Cmd)
    EFM_GetStatus                            0x0001228d   Thumb Code    52  hc32_ll_efm.o(i.EFM_GetStatus)
    EFM_Program                              0x000122f5   Thumb Code   480  hc32_ll_efm.o(i.EFM_Program)
    EFM_SectorErase                          0x00012525   Thumb Code   254  hc32_ll_efm.o(i.EFM_SectorErase)
    EFM_SetWaitCycle                         0x00012669   Thumb Code   126  hc32_ll_efm.o(i.EFM_SetWaitCycle)
    FCG_Fcg0PeriphClockCmd                   0x00012755   Thumb Code   104  hc32_ll_fcg.o(i.FCG_Fcg0PeriphClockCmd)
    FCG_Fcg1PeriphClockCmd                   0x000127f5   Thumb Code    80  hc32_ll_fcg.o(i.FCG_Fcg1PeriphClockCmd)
    FCG_Fcg2PeriphClockCmd                   0x0001287d   Thumb Code    80  hc32_ll_fcg.o(i.FCG_Fcg2PeriphClockCmd)
    FLASH_EraseSector                        0x00012905   Thumb Code    72  flash.o(i.FLASH_EraseSector)
    FLASH_ReadData                           0x0001294d   Thumb Code    94  flash.o(i.FLASH_ReadData)
    FLASH_WriteData                          0x000129ab   Thumb Code    50  flash.o(i.FLASH_WriteData)
    GPIO_AnalogCmd                           0x000129dd   Thumb Code   134  hc32_ll_gpio.o(i.GPIO_AnalogCmd)
    GPIO_Init                                0x00012a99   Thumb Code   456  hc32_ll_gpio.o(i.GPIO_Init)
    GPIO_ReadInputPins                       0x00012c95   Thumb Code    88  hc32_ll_gpio.o(i.GPIO_ReadInputPins)
    GPIO_ResetPins                           0x00012d21   Thumb Code    82  hc32_ll_gpio.o(i.GPIO_ResetPins)
    GPIO_SetFunc                             0x00012da9   Thumb Code   164  hc32_ll_gpio.o(i.GPIO_SetFunc)
    GPIO_SetPins                             0x00012e81   Thumb Code    82  hc32_ll_gpio.o(i.GPIO_SetPins)
    GPIO_SetReadWaitCycle                    0x00012f09   Thumb Code    90  hc32_ll_gpio.o(i.GPIO_SetReadWaitCycle)
    GPIO_StructInit                          0x00012f99   Thumb Code    32  hc32_ll_gpio.o(i.GPIO_StructInit)
    GPIO_TogglePins                          0x00012fb9   Thumb Code    82  hc32_ll_gpio.o(i.GPIO_TogglePins)
    I2C_AckConfig                            0x00013041   Thumb Code    80  hc32_ll_i2c.o(i.I2C_AckConfig)
    I2C_BaudrateConfig                       0x000130cd   Thumb Code   476  hc32_ll_i2c.o(i.I2C_BaudrateConfig)
    I2C_BusWaitCmd                           0x000132f9   Thumb Code    86  hc32_ll_i2c.o(i.I2C_BusWaitCmd)
    I2C_ClearStatus                          0x0001338d   Thumb Code    72  hc32_ll_i2c.o(i.I2C_ClearStatus)
    I2C_Cmd                                  0x00013415   Thumb Code    72  hc32_ll_i2c.o(i.I2C_Cmd)
    I2C_DeInit                               0x00013499   Thumb Code    56  hc32_ll_i2c.o(i.I2C_DeInit)
    I2C_GenerateRestart                      0x0001350d   Thumb Code    46  hc32_ll_i2c.o(i.I2C_GenerateRestart)
    I2C_GenerateStart                        0x00013579   Thumb Code    46  hc32_ll_i2c.o(i.I2C_GenerateStart)
    I2C_GenerateStop                         0x000135e5   Thumb Code    46  hc32_ll_i2c.o(i.I2C_GenerateStop)
    I2C_GetStatus                            0x00013651   Thumb Code    82  hc32_ll_i2c.o(i.I2C_GetStatus)
    I2C_Init                                 0x000136e5   Thumb Code   176  hc32_ll_i2c.o(i.I2C_Init)
    I2C_MasterReceiveDataAndStop             0x000137d5   Thumb Code   218  hc32_ll_i2c.o(i.I2C_MasterReceiveDataAndStop)
    I2C_Master_Transmit                      0x000138ed   Thumb Code   112  i2c.o(i.I2C_Master_Transmit)
    I2C_ReadData                             0x00013961   Thumb Code    44  hc32_ll_i2c.o(i.I2C_ReadData)
    I2C_Restart                              0x000139c9   Thumb Code    72  hc32_ll_i2c.o(i.I2C_Restart)
    I2C_SWResetCmd                           0x00013a51   Thumb Code    72  hc32_ll_i2c.o(i.I2C_SWResetCmd)
    I2C_Start                                0x00013ad5   Thumb Code    82  hc32_ll_i2c.o(i.I2C_Start)
    I2C_Stop                                 0x00013b69   Thumb Code    92  hc32_ll_i2c.o(i.I2C_Stop)
    I2C_StructInit                           0x00013c01   Thumb Code    24  hc32_ll_i2c.o(i.I2C_StructInit)
    I2C_TransAddr                            0x00013c19   Thumb Code   174  hc32_ll_i2c.o(i.I2C_TransAddr)
    I2C_TransData                            0x00013d05   Thumb Code   146  hc32_ll_i2c.o(i.I2C_TransData)
    I2C_WaitStatus                           0x00013dd5   Thumb Code   144  hc32_ll_i2c.o(i.I2C_WaitStatus)
    I2C_WriteData                            0x00013ea5   Thumb Code    46  hc32_ll_i2c.o(i.I2C_WriteData)
    INTC_IrqSignIn                           0x00013f11   Thumb Code   168  hc32_ll_interrupts.o(i.INTC_IrqSignIn)
    IRQ000_Handler                           0x00013ff9   Thumb Code    14  hc32_ll_interrupts.o(i.IRQ000_Handler)
    IRQ001_Handler                           0x0001400d   Thumb Code    14  hc32_ll_interrupts.o(i.IRQ001_Handler)
    IRQ002_Handler                           0x00014021   Thumb Code    14  hc32_ll_interrupts.o(i.IRQ002_Handler)
    IRQ003_Handler                           0x00014035   Thumb Code    14  hc32_ll_interrupts.o(i.IRQ003_Handler)
    IRQ004_Handler                           0x00014049   Thumb Code    14  hc32_ll_interrupts.o(i.IRQ004_Handler)
    IRQ005_Handler                           0x0001405d   Thumb Code    14  hc32_ll_interrupts.o(i.IRQ005_Handler)
    IRQ006_Handler                           0x00014071   Thumb Code    14  hc32_ll_interrupts.o(i.IRQ006_Handler)
    IRQ007_Handler                           0x00014085   Thumb Code    14  hc32_ll_interrupts.o(i.IRQ007_Handler)
    IRQ008_Handler                           0x00014099   Thumb Code    14  hc32_ll_interrupts.o(i.IRQ008_Handler)
    IRQ009_Handler                           0x000140ad   Thumb Code    14  hc32_ll_interrupts.o(i.IRQ009_Handler)
    IRQ010_Handler                           0x000140c1   Thumb Code    14  hc32_ll_interrupts.o(i.IRQ010_Handler)
    IRQ011_Handler                           0x000140d5   Thumb Code    14  hc32_ll_interrupts.o(i.IRQ011_Handler)
    IRQ012_Handler                           0x000140e9   Thumb Code    14  hc32_ll_interrupts.o(i.IRQ012_Handler)
    IRQ013_Handler                           0x000140fd   Thumb Code    14  hc32_ll_interrupts.o(i.IRQ013_Handler)
    IRQ014_Handler                           0x00014111   Thumb Code    14  hc32_ll_interrupts.o(i.IRQ014_Handler)
    IRQ015_Handler                           0x00014125   Thumb Code    14  hc32_ll_interrupts.o(i.IRQ015_Handler)
    IRQ016_Handler                           0x00014139   Thumb Code    14  hc32_ll_interrupts.o(i.IRQ016_Handler)
    IRQ017_Handler                           0x0001414d   Thumb Code    14  hc32_ll_interrupts.o(i.IRQ017_Handler)
    IRQ018_Handler                           0x00014161   Thumb Code    14  hc32_ll_interrupts.o(i.IRQ018_Handler)
    IRQ019_Handler                           0x00014175   Thumb Code    14  hc32_ll_interrupts.o(i.IRQ019_Handler)
    IRQ020_Handler                           0x00014189   Thumb Code    14  hc32_ll_interrupts.o(i.IRQ020_Handler)
    IRQ021_Handler                           0x0001419d   Thumb Code    14  hc32_ll_interrupts.o(i.IRQ021_Handler)
    IRQ022_Handler                           0x000141b1   Thumb Code    14  hc32_ll_interrupts.o(i.IRQ022_Handler)
    IRQ023_Handler                           0x000141c5   Thumb Code    14  hc32_ll_interrupts.o(i.IRQ023_Handler)
    IRQ024_Handler                           0x000141d9   Thumb Code    14  hc32_ll_interrupts.o(i.IRQ024_Handler)
    IRQ025_Handler                           0x000141ed   Thumb Code    14  hc32_ll_interrupts.o(i.IRQ025_Handler)
    IRQ026_Handler                           0x00014201   Thumb Code    14  hc32_ll_interrupts.o(i.IRQ026_Handler)
    IRQ027_Handler                           0x00014215   Thumb Code    14  hc32_ll_interrupts.o(i.IRQ027_Handler)
    IRQ028_Handler                           0x00014229   Thumb Code    14  hc32_ll_interrupts.o(i.IRQ028_Handler)
    IRQ029_Handler                           0x0001423d   Thumb Code    14  hc32_ll_interrupts.o(i.IRQ029_Handler)
    IRQ030_Handler                           0x00014251   Thumb Code    14  hc32_ll_interrupts.o(i.IRQ030_Handler)
    IRQ031_Handler                           0x00014265   Thumb Code    14  hc32_ll_interrupts.o(i.IRQ031_Handler)
    IRQ032_Handler                           0x00014279   Thumb Code    16  hc32_ll_interrupts.o(i.IRQ032_Handler)
    IRQ033_Handler                           0x0001428d   Thumb Code    16  hc32_ll_interrupts.o(i.IRQ033_Handler)
    IRQ034_Handler                           0x000142a1   Thumb Code    16  hc32_ll_interrupts.o(i.IRQ034_Handler)
    IRQ035_Handler                           0x000142b5   Thumb Code    16  hc32_ll_interrupts.o(i.IRQ035_Handler)
    IRQ036_Handler                           0x000142c9   Thumb Code    16  hc32_ll_interrupts.o(i.IRQ036_Handler)
    IRQ037_Handler                           0x000142dd   Thumb Code    16  hc32_ll_interrupts.o(i.IRQ037_Handler)
    IRQ038_Handler                           0x000142f1   Thumb Code    16  hc32_ll_interrupts.o(i.IRQ038_Handler)
    IRQ039_Handler                           0x00014305   Thumb Code    16  hc32_ll_interrupts.o(i.IRQ039_Handler)
    IRQ040_Handler                           0x00014319   Thumb Code    16  hc32_ll_interrupts.o(i.IRQ040_Handler)
    IRQ041_Handler                           0x0001432d   Thumb Code    16  hc32_ll_interrupts.o(i.IRQ041_Handler)
    IRQ042_Handler                           0x00014341   Thumb Code    16  hc32_ll_interrupts.o(i.IRQ042_Handler)
    IRQ043_Handler                           0x00014355   Thumb Code    16  hc32_ll_interrupts.o(i.IRQ043_Handler)
    IRQ044_Handler                           0x00014369   Thumb Code    16  hc32_ll_interrupts.o(i.IRQ044_Handler)
    IRQ045_Handler                           0x0001437d   Thumb Code    16  hc32_ll_interrupts.o(i.IRQ045_Handler)
    IRQ046_Handler                           0x00014391   Thumb Code    16  hc32_ll_interrupts.o(i.IRQ046_Handler)
    IRQ047_Handler                           0x000143a5   Thumb Code    16  hc32_ll_interrupts.o(i.IRQ047_Handler)
    IRQ048_Handler                           0x000143b9   Thumb Code    16  hc32_ll_interrupts.o(i.IRQ048_Handler)
    IRQ049_Handler                           0x000143cd   Thumb Code    16  hc32_ll_interrupts.o(i.IRQ049_Handler)
    IRQ050_Handler                           0x000143e1   Thumb Code    16  hc32_ll_interrupts.o(i.IRQ050_Handler)
    IRQ051_Handler                           0x000143f5   Thumb Code    16  hc32_ll_interrupts.o(i.IRQ051_Handler)
    IRQ052_Handler                           0x00014409   Thumb Code    16  hc32_ll_interrupts.o(i.IRQ052_Handler)
    IRQ053_Handler                           0x0001441d   Thumb Code    16  hc32_ll_interrupts.o(i.IRQ053_Handler)
    IRQ054_Handler                           0x00014431   Thumb Code    16  hc32_ll_interrupts.o(i.IRQ054_Handler)
    IRQ055_Handler                           0x00014445   Thumb Code    16  hc32_ll_interrupts.o(i.IRQ055_Handler)
    IRQ056_Handler                           0x00014459   Thumb Code    16  hc32_ll_interrupts.o(i.IRQ056_Handler)
    IRQ057_Handler                           0x0001446d   Thumb Code    16  hc32_ll_interrupts.o(i.IRQ057_Handler)
    IRQ058_Handler                           0x00014481   Thumb Code    16  hc32_ll_interrupts.o(i.IRQ058_Handler)
    IRQ059_Handler                           0x00014495   Thumb Code    16  hc32_ll_interrupts.o(i.IRQ059_Handler)
    IRQ060_Handler                           0x000144a9   Thumb Code    16  hc32_ll_interrupts.o(i.IRQ060_Handler)
    IRQ061_Handler                           0x000144bd   Thumb Code    16  hc32_ll_interrupts.o(i.IRQ061_Handler)
    IRQ062_Handler                           0x000144d1   Thumb Code    16  hc32_ll_interrupts.o(i.IRQ062_Handler)
    IRQ063_Handler                           0x000144e5   Thumb Code    16  hc32_ll_interrupts.o(i.IRQ063_Handler)
    IRQ064_Handler                           0x000144f9   Thumb Code    16  hc32_ll_interrupts.o(i.IRQ064_Handler)
    IRQ065_Handler                           0x0001450d   Thumb Code    16  hc32_ll_interrupts.o(i.IRQ065_Handler)
    IRQ066_Handler                           0x00014521   Thumb Code    16  hc32_ll_interrupts.o(i.IRQ066_Handler)
    IRQ067_Handler                           0x00014535   Thumb Code    16  hc32_ll_interrupts.o(i.IRQ067_Handler)
    IRQ068_Handler                           0x00014549   Thumb Code    16  hc32_ll_interrupts.o(i.IRQ068_Handler)
    IRQ069_Handler                           0x0001455d   Thumb Code    16  hc32_ll_interrupts.o(i.IRQ069_Handler)
    IRQ070_Handler                           0x00014571   Thumb Code    16  hc32_ll_interrupts.o(i.IRQ070_Handler)
    IRQ071_Handler                           0x00014585   Thumb Code    16  hc32_ll_interrupts.o(i.IRQ071_Handler)
    IRQ072_Handler                           0x00014599   Thumb Code    16  hc32_ll_interrupts.o(i.IRQ072_Handler)
    IRQ073_Handler                           0x000145ad   Thumb Code    16  hc32_ll_interrupts.o(i.IRQ073_Handler)
    IRQ074_Handler                           0x000145c1   Thumb Code    16  hc32_ll_interrupts.o(i.IRQ074_Handler)
    IRQ075_Handler                           0x000145d5   Thumb Code    16  hc32_ll_interrupts.o(i.IRQ075_Handler)
    IRQ076_Handler                           0x000145e9   Thumb Code    16  hc32_ll_interrupts.o(i.IRQ076_Handler)
    IRQ077_Handler                           0x000145fd   Thumb Code    16  hc32_ll_interrupts.o(i.IRQ077_Handler)
    IRQ078_Handler                           0x00014611   Thumb Code    16  hc32_ll_interrupts.o(i.IRQ078_Handler)
    IRQ079_Handler                           0x00014625   Thumb Code    16  hc32_ll_interrupts.o(i.IRQ079_Handler)
    IRQ080_Handler                           0x00014639   Thumb Code    16  hc32_ll_interrupts.o(i.IRQ080_Handler)
    IRQ081_Handler                           0x0001464d   Thumb Code    16  hc32_ll_interrupts.o(i.IRQ081_Handler)
    IRQ082_Handler                           0x00014661   Thumb Code    16  hc32_ll_interrupts.o(i.IRQ082_Handler)
    IRQ083_Handler                           0x00014675   Thumb Code    16  hc32_ll_interrupts.o(i.IRQ083_Handler)
    IRQ084_Handler                           0x00014689   Thumb Code    16  hc32_ll_interrupts.o(i.IRQ084_Handler)
    IRQ085_Handler                           0x0001469d   Thumb Code    16  hc32_ll_interrupts.o(i.IRQ085_Handler)
    IRQ086_Handler                           0x000146b1   Thumb Code    16  hc32_ll_interrupts.o(i.IRQ086_Handler)
    IRQ087_Handler                           0x000146c5   Thumb Code    16  hc32_ll_interrupts.o(i.IRQ087_Handler)
    IRQ088_Handler                           0x000146d9   Thumb Code    16  hc32_ll_interrupts.o(i.IRQ088_Handler)
    IRQ089_Handler                           0x000146ed   Thumb Code    16  hc32_ll_interrupts.o(i.IRQ089_Handler)
    IRQ090_Handler                           0x00014701   Thumb Code    16  hc32_ll_interrupts.o(i.IRQ090_Handler)
    IRQ091_Handler                           0x00014715   Thumb Code    16  hc32_ll_interrupts.o(i.IRQ091_Handler)
    IRQ092_Handler                           0x00014729   Thumb Code    16  hc32_ll_interrupts.o(i.IRQ092_Handler)
    IRQ093_Handler                           0x0001473d   Thumb Code    16  hc32_ll_interrupts.o(i.IRQ093_Handler)
    IRQ094_Handler                           0x00014751   Thumb Code    16  hc32_ll_interrupts.o(i.IRQ094_Handler)
    IRQ095_Handler                           0x00014765   Thumb Code    16  hc32_ll_interrupts.o(i.IRQ095_Handler)
    IRQ096_Handler                           0x00014779   Thumb Code    16  hc32_ll_interrupts.o(i.IRQ096_Handler)
    IRQ097_Handler                           0x0001478d   Thumb Code    16  hc32_ll_interrupts.o(i.IRQ097_Handler)
    IRQ098_Handler                           0x000147a1   Thumb Code    16  hc32_ll_interrupts.o(i.IRQ098_Handler)
    IRQ099_Handler                           0x000147b5   Thumb Code    16  hc32_ll_interrupts.o(i.IRQ099_Handler)
    IRQ100_Handler                           0x000147c9   Thumb Code    16  hc32_ll_interrupts.o(i.IRQ100_Handler)
    IRQ101_Handler                           0x000147dd   Thumb Code    16  hc32_ll_interrupts.o(i.IRQ101_Handler)
    IRQ102_Handler                           0x000147f1   Thumb Code    16  hc32_ll_interrupts.o(i.IRQ102_Handler)
    IRQ103_Handler                           0x00014805   Thumb Code    16  hc32_ll_interrupts.o(i.IRQ103_Handler)
    IRQ104_Handler                           0x00014819   Thumb Code    16  hc32_ll_interrupts.o(i.IRQ104_Handler)
    IRQ105_Handler                           0x0001482d   Thumb Code    16  hc32_ll_interrupts.o(i.IRQ105_Handler)
    IRQ106_Handler                           0x00014841   Thumb Code    16  hc32_ll_interrupts.o(i.IRQ106_Handler)
    IRQ107_Handler                           0x00014855   Thumb Code    16  hc32_ll_interrupts.o(i.IRQ107_Handler)
    IRQ108_Handler                           0x00014869   Thumb Code    16  hc32_ll_interrupts.o(i.IRQ108_Handler)
    IRQ109_Handler                           0x0001487d   Thumb Code    16  hc32_ll_interrupts.o(i.IRQ109_Handler)
    IRQ110_Handler                           0x00014891   Thumb Code    16  hc32_ll_interrupts.o(i.IRQ110_Handler)
    IRQ111_Handler                           0x000148a5   Thumb Code    16  hc32_ll_interrupts.o(i.IRQ111_Handler)
    IRQ112_Handler                           0x000148b9   Thumb Code    16  hc32_ll_interrupts.o(i.IRQ112_Handler)
    IRQ113_Handler                           0x000148cd   Thumb Code    16  hc32_ll_interrupts.o(i.IRQ113_Handler)
    IRQ114_Handler                           0x000148e1   Thumb Code    16  hc32_ll_interrupts.o(i.IRQ114_Handler)
    IRQ115_Handler                           0x000148f5   Thumb Code    16  hc32_ll_interrupts.o(i.IRQ115_Handler)
    IRQ116_Handler                           0x00014909   Thumb Code    16  hc32_ll_interrupts.o(i.IRQ116_Handler)
    IRQ117_Handler                           0x0001491d   Thumb Code    16  hc32_ll_interrupts.o(i.IRQ117_Handler)
    IRQ118_Handler                           0x00014931   Thumb Code    16  hc32_ll_interrupts.o(i.IRQ118_Handler)
    IRQ119_Handler                           0x00014945   Thumb Code    16  hc32_ll_interrupts.o(i.IRQ119_Handler)
    IRQ120_Handler                           0x00014959   Thumb Code    16  hc32_ll_interrupts.o(i.IRQ120_Handler)
    IRQ121_Handler                           0x0001496d   Thumb Code    16  hc32_ll_interrupts.o(i.IRQ121_Handler)
    IRQ122_Handler                           0x00014981   Thumb Code    16  hc32_ll_interrupts.o(i.IRQ122_Handler)
    IRQ123_Handler                           0x00014995   Thumb Code    16  hc32_ll_interrupts.o(i.IRQ123_Handler)
    IRQ124_Handler                           0x000149a9   Thumb Code    16  hc32_ll_interrupts.o(i.IRQ124_Handler)
    IRQ125_Handler                           0x000149bd   Thumb Code    16  hc32_ll_interrupts.o(i.IRQ125_Handler)
    IRQ126_Handler                           0x000149d1   Thumb Code    16  hc32_ll_interrupts.o(i.IRQ126_Handler)
    IRQ127_Handler                           0x000149e5   Thumb Code    16  hc32_ll_interrupts.o(i.IRQ127_Handler)
    LL_PERIPH_WE                             0x00014a75   Thumb Code   122  hc32_ll.o(i.LL_PERIPH_WE)
    LL_PrintfInit                            0x00014b05   Thumb Code    98  hc32_ll_utility.o(i.LL_PrintfInit)
    Master_Initialize                        0x00014bad   Thumb Code    60  i2c.o(i.Master_Initialize)
    PWC_HighSpeedToHighPerformance           0x00014c01   Thumb Code    68  hc32_ll_pwc.o(i.PWC_HighSpeedToHighPerformance)
    Read_ASW2                                0x00014cc5   Thumb Code    60  flash.o(i.Read_ASW2)
    Read_AVSW                                0x00014d09   Thumb Code    60  flash.o(i.Read_AVSW)
    Reser_Status                             0x00014d4d   Thumb Code     8  videoprocess.o(i.Reser_Status)
    SRAM_SetWaitCycle                        0x00014d59   Thumb Code   182  hc32_ll_sram.o(i.SRAM_SetWaitCycle)
    Signal_led                               0x0001527d   Thumb Code    68  videoprocess.o(i.Signal_led)
    SystemCoreClockUpdate                    0x00015549   Thumb Code   174  system_hc32f460.o(i.SystemCoreClockUpdate)
    SystemInit                               0x00015615   Thumb Code    30  system_hc32f460.o(i.SystemInit)
    TMR02_A_Config                           0x00015639   Thumb Code   216  ev_hc32f460_lqfp100_v2.o(i.TMR02_A_Config)
    TMR0_CHA_CompareIrqCallback              0x00015725   Thumb Code   388  ev_hc32f460_lqfp100_v2.o(i.TMR0_CHA_CompareIrqCallback)
    TMR0_ClearStatus                         0x000158d1   Thumb Code    70  hc32_ll_tmr0.o(i.TMR0_ClearStatus)
    TMR0_Config                              0x00015951   Thumb Code   130  uart_dma.o(i.TMR0_Config)
    TMR0_HWClearCondCmd                      0x000159d9   Thumb Code   114  hc32_ll_tmr0.o(i.TMR0_HWClearCondCmd)
    TMR0_HWStartCondCmd                      0x00015a85   Thumb Code   114  hc32_ll_tmr0.o(i.TMR0_HWStartCondCmd)
    TMR0_HWStopCondCmd                       0x00015b31   Thumb Code   114  hc32_ll_tmr0.o(i.TMR0_HWStopCondCmd)
    TMR0_Init                                0x00015bdd   Thumb Code   284  hc32_ll_tmr0.o(i.TMR0_Init)
    TMR0_IntCmd                              0x00015d31   Thumb Code   104  hc32_ll_tmr0.o(i.TMR0_IntCmd)
    TMR0_Start                               0x00015dd1   Thumb Code    66  hc32_ll_tmr0.o(i.TMR0_Start)
    TMR0_Stop                                0x00015e4d   Thumb Code    70  hc32_ll_tmr0.o(i.TMR0_Stop)
    TMR0_StructInit                          0x00015ecd   Thumb Code    26  hc32_ll_tmr0.o(i.TMR0_StructInit)
    USART_ClearStatus                        0x00016195   Thumb Code   108  hc32_ll_usart.o(i.USART_ClearStatus)
    USART_FuncCmd                            0x00016249   Thumb Code   124  hc32_ll_usart.o(i.USART_FuncCmd)
    USART_ReadData                           0x000163b5   Thumb Code    48  hc32_ll_usart.o(i.USART_ReadData)
    USART_RxError_IrqCallback                0x00016429   Thumb Code    18  uart_dma.o(i.USART_RxError_IrqCallback)
    USART_RxTimeout_IrqCallback              0x00016441   Thumb Code    64  uart_dma.o(i.USART_RxTimeout_IrqCallback)
    USART_SetBaudrate                        0x00016499   Thumb Code   206  hc32_ll_usart.o(i.USART_SetBaudrate)
    USART_SetClockDiv                        0x000165b1   Thumb Code    76  hc32_ll_usart.o(i.USART_SetClockDiv)
    USART_TxComplete_IrqCallback             0x00016641   Thumb Code    50  uart_dma.o(i.USART_TxComplete_IrqCallback)
    USART_UART_Init                          0x0001667d   Thumb Code   436  hc32_ll_usart.o(i.USART_UART_Init)
    USART_UART_StructInit                    0x00016875   Thumb Code    46  hc32_ll_usart.o(i.USART_UART_StructInit)
    Video_ReadNot2                           0x000168a5   Thumb Code   352  flash.o(i.Video_ReadNot2)
    Video_Sw                                 0x00016a41   Thumb Code    14  videoprocess.o(i.Video_Sw)
    __0printf$8                              0x00016a51   Thumb Code    22  printf8.o(i.__0printf$8)
    __1printf$8                              0x00016a51   Thumb Code     0  printf8.o(i.__0printf$8)
    __2printf                                0x00016a51   Thumb Code     0  printf8.o(i.__0printf$8)
    __0sprintf$8                             0x00016a71   Thumb Code    34  printf8.o(i.__0sprintf$8)
    __1sprintf$8                             0x00016a71   Thumb Code     0  printf8.o(i.__0sprintf$8)
    __2sprintf                               0x00016a71   Thumb Code     0  printf8.o(i.__0sprintf$8)
    __scatterload_copy                       0x00016b01   Thumb Code    14  handlers.o(i.__scatterload_copy)
    __scatterload_null                       0x00016b0f   Thumb Code     2  handlers.o(i.__scatterload_null)
    __scatterload_zeroinit                   0x00016b11   Thumb Code    14  handlers.o(i.__scatterload_zeroinit)
    cm_backtrace_call_stack                  0x00016f8d   Thumb Code   208  cm_backtrace.o(i.cm_backtrace_call_stack)
    cm_backtrace_fault                       0x00017079   Thumb Code   436  cm_backtrace.o(i.cm_backtrace_fault)
    cm_backtrace_firmware_info               0x00017305   Thumb Code    24  cm_backtrace.o(i.cm_backtrace_firmware_info)
    detect_loop                              0x00017331   Thumb Code   316  videoprocess.o(i.detect_loop)
    fputc                                    0x000178d1   Thumb Code    24  hc32_ll_utility.o(i.fputc)
    i2c_init                                 0x00017c1d   Thumb Code    74  i2c.o(i.i2c_init)
    $Super$$main                             0x00017c85   Thumb Code   246  main.o(i.main)
    mem_settings                             0x00017dad   Thumb Code   164  flash.o(i.mem_settings)
    set_ace                                  0x00017f7d   Thumb Code    46  videoprocess.o(i.set_ace)
    set_bcsh                                 0x00017fc5   Thumb Code    66  videoprocess.o(i.set_bcsh)
    set_double_line                          0x00018055   Thumb Code    46  videoprocess.o(i.set_double_line)
    set_input                                0x0001809d   Thumb Code    46  videoprocess.o(i.set_input)
    set_smooth                               0x000180ed   Thumb Code    46  videoprocess.o(i.set_smooth)
    signal_turn                              0x0001813d   Thumb Code  1612  uart_dma.o(i.signal_turn)
    uart_dma_init                            0x0001881d   Thumb Code   258  uart_dma.o(i.uart_dma_init)
    video_Deinit                             0x00018a5d   Thumb Code    40  videoprocess.o(i.video_Deinit)
    video_init                               0x00018a95   Thumb Code   222  videoprocess.o(i.video_init)
    I2C_COMMANDS_I2P_OFF_p                   0x00018bc4   Data          15  videoprocess.o(.constdata)
    Region$$Table$$Base                      0x0001931c   Number         0  anon$$obj.o(Region$$Table)
    Image$$ER_IROM1$$Limit                   0x0001933c   Number         0  anon$$obj.o ABSOLUTE
    Region$$Table$$Limit                     0x0001933c   Number         0  anon$$obj.o(Region$$Table)
    g_u16_sys_timer                          0x1fff8018   Data           2  ev_hc32f460_lqfp100_v2.o(.data)
    g_u16_key_timer                          0x1fff801a   Data           2  ev_hc32f460_lqfp100_v2.o(.data)
    g_u16_mis_timer                          0x1fff801c   Data           2  ev_hc32f460_lqfp100_v2.o(.data)
    g_u16_osd_timer                          0x1fff801e   Data           2  ev_hc32f460_lqfp100_v2.o(.data)
    g_u16_rgbs_timer                         0x1fff8020   Data           2  ev_hc32f460_lqfp100_v2.o(.data)
    g_u16_led_timer                          0x1fff8022   Data           2  ev_hc32f460_lqfp100_v2.o(.data)
    led_state                                0x1fff8024   Data           1  ev_hc32f460_lqfp100_v2.o(.data)
    led_sw                                   0x1fff8025   Data           1  ev_hc32f460_lqfp100_v2.o(.data)
    m_u8SpeedUpd                             0x1fff8034   Data           1  main.o(.data)
    adv7280_7391_240p_config                 0x1fff8037   Data          24  main.o(.data)
    Adv_7391_sw                              0x1fff805f   Data           1  videoprocess.o(.data)
    adv_input                                0x1fff8060   Data           1  videoprocess.o(.data)
    adv_double                               0x1fff8061   Data           1  videoprocess.o(.data)
    adv_smooth                               0x1fff8062   Data           1  videoprocess.o(.data)
    adv_ace                                  0x1fff8063   Data           1  videoprocess.o(.data)
    adv_sw                                   0x1fff8064   Data           1  videoprocess.o(.data)
    adv_tv                                   0x1fff8065   Data           1  videoprocess.o(.data)
    err_flag                                 0x1fff8066   Data           1  videoprocess.o(.data)
    c_state                                  0x1fff8067   Data           1  videoprocess.o(.data)
    Bright                                   0x1fff8068   Data           1  videoprocess.o(.data)
    Contrast                                 0x1fff8069   Data           1  videoprocess.o(.data)
    Saturation                               0x1fff806a   Data           1  videoprocess.o(.data)
    asw_01                                   0x1fff806b   Data           1  videoprocess.o(.data)
    asw_02                                   0x1fff806c   Data           1  videoprocess.o(.data)
    asw_03                                   0x1fff806d   Data           1  videoprocess.o(.data)
    asw_04                                   0x1fff806e   Data           1  videoprocess.o(.data)
    AVsw                                     0x1fff806f   Data           1  videoprocess.o(.data)
    Input_signal                             0x1fff8070   Data           1  videoprocess.o(.data)
    I2C_COMMANDS_I2P_ON                      0x1fff8071   Data          15  videoprocess.o(.data)
    I2C_COMMANDS_I2P_OFF_576i                0x1fff8080   Data          42  videoprocess.o(.data)
    I2C_COMMANDS_SMOOTH_OFF                  0x1fff80aa   Data           9  videoprocess.o(.data)
    I2C_COMMANDS_SMOOTH_ON                   0x1fff80b3   Data           9  videoprocess.o(.data)
    I2C_COMMANDS_BCSH                        0x1fff80bc   Data          12  videoprocess.o(.data)
    I2C_COMMANDS_YC_INPUT                    0x1fff80c8   Data          15  videoprocess.o(.data)
    I2C_COMMANDS_CVBS_INPUT                  0x1fff80d7   Data          15  videoprocess.o(.data)
    RetroScaler_I2C_AUTO_COMMANDS            0x1fff80e6   Data          81  videoprocess.o(.data)
    I2C_AUTO_COMMANDS                        0x1fff8137   Data         123  videoprocess.o(.data)
    Ace_Code_ON                              0x1fff81b2   Data           9  videoprocess.o(.data)
    Ace_Code_OFF                             0x1fff81bb   Data           9  videoprocess.o(.data)
    SystemCoreClock                          0x1fff81c8   Data           4  system_hc32f460.o(.data)
    HRC_VALUE                                0x1fff81cc   Data           4  system_hc32f460.o(.data)
    __stdout                                 0x1fff81e8   Data           4  stdout.o(.data)
    u8_buf                                   0x1fff83ec   Data         256  flash.o(.bss)
    dma_au8RxBuf                             0x1fff84ec   Data         500  uart_dma.o(.bss)
    STACK$$Base                              0x1fff88c8   Number         0  startup_hc32f460.o(STACK)
    STACK$$Limit                             0x1fff94c8   Number         0  startup_hc32f460.o(STACK)
    __initial_sp                             0x1fff94c8   Data           0  startup_hc32f460.o(STACK)



==============================================================================

Memory Map of the image

  Image Entry point : 0x00010281

  Load Region LR_IROM1 (Base: 0x00010000, Size: 0x00009528, Max: 0x00060000, ABSOLUTE, COMPRESSED[0x00009430])

    Execution Region ER_IROM1 (Exec base: 0x00010000, Load base: 0x00010000, Size: 0x0000933c, Max: 0x00060000, ABSOLUTE)

    Exec Addr    Load Addr    Size         Type   Attr      Idx    E Section Name        Object

    0x00010000   0x00010000   0x00000280   Data   RO         3983    RESET               startup_hc32f460.o
    0x00010280   0x00010280   0x00000000   Code   RO         4088  * .ARM.Collect$$$$00000000  mc_w.l(entry.o)
    0x00010280   0x00010280   0x00000004   Code   RO         4373    .ARM.Collect$$$$00000001  mc_w.l(entry2.o)
    0x00010284   0x00010284   0x00000004   Code   RO         4376    .ARM.Collect$$$$00000004  mc_w.l(entry5.o)
    0x00010288   0x00010288   0x00000000   Code   RO         4378    .ARM.Collect$$$$00000008  mc_w.l(entry7b.o)
    0x00010288   0x00010288   0x00000000   Code   RO         4380    .ARM.Collect$$$$0000000A  mc_w.l(entry8b.o)
    0x00010288   0x00010288   0x00000008   Code   RO         4381    .ARM.Collect$$$$0000000B  mc_w.l(entry9a.o)
    0x00010290   0x00010290   0x00000000   Code   RO         4383    .ARM.Collect$$$$0000000D  mc_w.l(entry10a.o)
    0x00010290   0x00010290   0x00000000   Code   RO         4385    .ARM.Collect$$$$0000000F  mc_w.l(entry11a.o)
    0x00010290   0x00010290   0x00000004   Code   RO         4374    .ARM.Collect$$$$00002712  mc_w.l(entry2.o)
    0x00010294   0x00010294   0x00000058   Code   RO         3984    .text               startup_hc32f460.o
    0x000102ec   0x000102ec   0x0000000c   Code   RO         4084    .text               cmb_fault.o
    0x000102f8   0x000102f8   0x00000062   Code   RO         4094    .text               mc_w.l(uldiv.o)
    0x0001035a   0x0001035a   0x00000024   Code   RO         4096    .text               mc_w.l(memcpya.o)
    0x0001037e   0x0001037e   0x00000024   Code   RO         4098    .text               mc_w.l(memseta.o)
    0x000103a2   0x000103a2   0x000000de   Code   RO         4365    .text               mf_w.l(ddiv.o)
    0x00010480   0x00010480   0x0000001a   Code   RO         4367    .text               mf_w.l(dfltui.o)
    0x0001049a   0x0001049a   0x00000018   Code   RO         4369    .text               mf_w.l(dfltul.o)
    0x000104b2   0x000104b2   0x00000038   Code   RO         4371    .text               mf_w.l(d2f.o)
    0x000104ea   0x000104ea   0x0000001e   Code   RO         4389    .text               mc_w.l(llshl.o)
    0x00010508   0x00010508   0x00000020   Code   RO         4391    .text               mc_w.l(llushr.o)
    0x00010528   0x00010528   0x00000000   Code   RO         4393    .text               mc_w.l(iusefp.o)
    0x00010528   0x00010528   0x0000006e   Code   RO         4394    .text               mf_w.l(fepilogue.o)
    0x00010596   0x00010596   0x000000ba   Code   RO         4396    .text               mf_w.l(depilogue.o)
    0x00010650   0x00010650   0x00000024   Code   RO         4406    .text               mc_w.l(init.o)
    0x00010674   0x00010674   0x00000056   Code   RO         4418    .text               mc_w.l(__dczerorl2.o)
    0x000106ca   0x000106ca   0x0000000e   Code   RO         3942    i.$Sub$$main        system_hc32f460.o
    0x000106d8   0x000106d8   0x00000088   Code   RO         3652    i.ADV_7280_Send_Buff  i2c.o
    0x00010760   0x00010760   0x000000f4   Code   RO         2964    i.AOS_SetTriggerEventSrc  hc32_ll_aos.o
    0x00010854   0x00010854   0x00000102   Code   RO         3819    i.ASC               videoprocess.o
    0x00010956   0x00010956   0x000000c0   Code   RO         3820    i.ASC_Not02         videoprocess.o
    0x00010a16   0x00010a16   0x00000002   PAD
    0x00010a18   0x00010a18   0x00000084   Code   RO         3821    i.AV_Connecte_Set   videoprocess.o
    0x00010a9c   0x00010a9c   0x000000d0   Code   RO         3282    i.BSP_CLK_Init      ev_hc32f460_lqfp100_v2.o
    0x00010b6c   0x00010b6c   0x00000032   Code   RO         3283    i.BSP_LED_Init      ev_hc32f460_lqfp100_v2.o
    0x00010b9e   0x00010b9e   0x00000030   Code   RO         3284    i.BSP_LED_Off       ev_hc32f460_lqfp100_v2.o
    0x00010bce   0x00010bce   0x00000030   Code   RO         3285    i.BSP_LED_On        ev_hc32f460_lqfp100_v2.o
    0x00010bfe   0x00010bfe   0x0000004e   Code   RO         3286    i.BSP_LED_Sw        ev_hc32f460_lqfp100_v2.o
    0x00010c4c   0x00010c4c   0x00000030   Code   RO         3287    i.BSP_LED_Toggle    ev_hc32f460_lqfp100_v2.o
    0x00010c7c   0x00010c7c   0x000000a0   Code   RO         3288    i.BSP_PRINTF_Preinit  ev_hc32f460_lqfp100_v2.o
    0x00010d1c   0x00010d1c   0x00000064   Code   RO          141    i.CLK_GetStableStatus  hc32_ll_clk.o
    0x00010d80   0x00010d80   0x000000cc   Code   RO          151    i.CLK_PLLCmd        hc32_ll_clk.o
    0x00010e4c   0x00010e4c   0x000002a8   Code   RO          152    i.CLK_PLLInit       hc32_ll_clk.o
    0x000110f4   0x000110f4   0x00000052   Code   RO          153    i.CLK_PLLStructInit  hc32_ll_clk.o
    0x00011146   0x00011146   0x00000014   Code   RO          157    i.CLK_SetClockDiv   hc32_ll_clk.o
    0x0001115a   0x0001115a   0x00000010   Code   RO          161    i.CLK_SetSysClockSrc  hc32_ll_clk.o
    0x0001116a   0x0001116a   0x00000030   Code   RO          165    i.CLK_WaitStable    hc32_ll_clk.o
    0x0001119a   0x0001119a   0x00000002   PAD
    0x0001119c   0x0001119c   0x000000c8   Code   RO          169    i.CLK_XtalCmd       hc32_ll_clk.o
    0x00011264   0x00011264   0x00000148   Code   RO          170    i.CLK_XtalInit      hc32_ll_clk.o
    0x000113ac   0x000113ac   0x0000001e   Code   RO          173    i.CLK_XtalStructInit  hc32_ll_clk.o
    0x000113ca   0x000113ca   0x00000002   PAD
    0x000113cc   0x000113cc   0x00000018   Code   RO         3290    i.C_LED_ERR_BLUE    ev_hc32f460_lqfp100_v2.o
    0x000113e4   0x000113e4   0x00000018   Code   RO         3291    i.C_LED_ERR_GREEN   ev_hc32f460_lqfp100_v2.o
    0x000113fc   0x000113fc   0x00000018   Code   RO         3292    i.C_LED_ERR_RED     ev_hc32f460_lqfp100_v2.o
    0x00011414   0x00011414   0x00000018   Code   RO         3293    i.C_LED_OK          ev_hc32f460_lqfp100_v2.o
    0x0001142c   0x0001142c   0x000000c8   Code   RO         3653    i.Chip_Receive      i2c.o
    0x000114f4   0x000114f4   0x00000218   Code   RO         2044    i.ClockSync_CalculateBrr  hc32_ll_usart.o
    0x0001170c   0x0001170c   0x00000044   Code   RO         2315    i.DDL_AssertHandler  hc32_ll_utility.o
    0x00011750   0x00011750   0x0000004c   Code   RO         2316    i.DDL_ConsoleOutputChar  hc32_ll_utility.o
    0x0001179c   0x0001179c   0x00000040   Code   RO         2317    i.DDL_DelayMS       hc32_ll_utility.o
    0x000117dc   0x000117dc   0x00000040   Code   RO         2318    i.DDL_DelayUS       hc32_ll_utility.o
    0x0001181c   0x0001181c   0x00000204   Code   RO         2993    i.DMA_ChCmd         hc32_ll_dma.o
    0x00011a20   0x00011a20   0x00000080   Code   RO         2995    i.DMA_ClearTransCompleteStatus  hc32_ll_dma.o
    0x00011aa0   0x00011aa0   0x00000070   Code   RO         2996    i.DMA_Cmd           hc32_ll_dma.o
    0x00011b10   0x00011b10   0x000001cc   Code   RO         3708    i.DMA_Config        uart_dma.o
    0x00011cdc   0x00011cdc   0x00000084   Code   RO         3011    i.DMA_GetTransCount  hc32_ll_dma.o
    0x00011d60   0x00011d60   0x00000170   Code   RO         3013    i.DMA_Init          hc32_ll_dma.o
    0x00011ed0   0x00011ed0   0x000000e8   Code   RO         3015    i.DMA_LlpInit       hc32_ll_dma.o
    0x00011fb8   0x00011fb8   0x00000014   Code   RO         3016    i.DMA_LlpStructInit  hc32_ll_dma.o
    0x00011fcc   0x00011fcc   0x00000088   Code   RO         3019    i.DMA_ReconfigCmd   hc32_ll_dma.o
    0x00012054   0x00012054   0x000000a0   Code   RO         3021    i.DMA_ReconfigLlpCmd  hc32_ll_dma.o
    0x000120f4   0x000120f4   0x00000022   Code   RO         3036    i.DMA_StructInit    hc32_ll_dma.o
    0x00012116   0x00012116   0x00000002   PAD
    0x00012118   0x00012118   0x000000a0   Code   RO         3037    i.DMA_TransCompleteIntCmd  hc32_ll_dma.o
    0x000121b8   0x000121b8   0x00000080   Code   RO          398    i.EFM_ClearStatus   hc32_ll_efm.o
    0x00012238   0x00012238   0x00000054   Code   RO          401    i.EFM_FWMC_Cmd      hc32_ll_efm.o
    0x0001228c   0x0001228c   0x00000068   Code   RO          403    i.EFM_GetStatus     hc32_ll_efm.o
    0x000122f4   0x000122f4   0x00000230   Code   RO          410    i.EFM_Program       hc32_ll_efm.o
    0x00012524   0x00012524   0x00000144   Code   RO          421    i.EFM_SectorErase   hc32_ll_efm.o
    0x00012668   0x00012668   0x000000bc   Code   RO          424    i.EFM_SetWaitCycle  hc32_ll_efm.o
    0x00012724   0x00012724   0x00000030   Code   RO          427    i.EFM_WaitFlag      hc32_ll_efm.o
    0x00012754   0x00012754   0x000000a0   Code   RO         2432    i.FCG_Fcg0PeriphClockCmd  hc32_ll_fcg.o
    0x000127f4   0x000127f4   0x00000088   Code   RO         2433    i.FCG_Fcg1PeriphClockCmd  hc32_ll_fcg.o
    0x0001287c   0x0001287c   0x00000088   Code   RO         2434    i.FCG_Fcg2PeriphClockCmd  hc32_ll_fcg.o
    0x00012904   0x00012904   0x00000048   Code   RO         3583    i.FLASH_EraseSector  flash.o
    0x0001294c   0x0001294c   0x0000005e   Code   RO         3584    i.FLASH_ReadData    flash.o
    0x000129aa   0x000129aa   0x00000032   Code   RO         3585    i.FLASH_WriteData   flash.o
    0x000129dc   0x000129dc   0x000000bc   Code   RO          614    i.GPIO_AnalogCmd    hc32_ll_gpio.o
    0x00012a98   0x00012a98   0x000001fc   Code   RO          616    i.GPIO_Init         hc32_ll_gpio.o
    0x00012c94   0x00012c94   0x0000008c   Code   RO          619    i.GPIO_ReadInputPins  hc32_ll_gpio.o
    0x00012d20   0x00012d20   0x00000088   Code   RO          623    i.GPIO_ResetPins    hc32_ll_gpio.o
    0x00012da8   0x00012da8   0x000000d8   Code   RO          625    i.GPIO_SetFunc      hc32_ll_gpio.o
    0x00012e80   0x00012e80   0x00000088   Code   RO          626    i.GPIO_SetPins      hc32_ll_gpio.o
    0x00012f08   0x00012f08   0x00000090   Code   RO          627    i.GPIO_SetReadWaitCycle  hc32_ll_gpio.o
    0x00012f98   0x00012f98   0x00000020   Code   RO          629    i.GPIO_StructInit   hc32_ll_gpio.o
    0x00012fb8   0x00012fb8   0x00000088   Code   RO          631    i.GPIO_TogglePins   hc32_ll_gpio.o
    0x00013040   0x00013040   0x0000008c   Code   RO         2606    i.I2C_AckConfig     hc32_ll_i2c.o
    0x000130cc   0x000130cc   0x0000022c   Code   RO         2608    i.I2C_BaudrateConfig  hc32_ll_i2c.o
    0x000132f8   0x000132f8   0x00000094   Code   RO         2609    i.I2C_BusWaitCmd    hc32_ll_i2c.o
    0x0001338c   0x0001338c   0x00000088   Code   RO         2610    i.I2C_ClearStatus   hc32_ll_i2c.o
    0x00013414   0x00013414   0x00000084   Code   RO         2611    i.I2C_Cmd           hc32_ll_i2c.o
    0x00013498   0x00013498   0x00000074   Code   RO         2612    i.I2C_DeInit        hc32_ll_i2c.o
    0x0001350c   0x0001350c   0x0000006c   Code   RO         2617    i.I2C_GenerateRestart  hc32_ll_i2c.o
    0x00013578   0x00013578   0x0000006c   Code   RO         2618    i.I2C_GenerateStart  hc32_ll_i2c.o
    0x000135e4   0x000135e4   0x0000006c   Code   RO         2619    i.I2C_GenerateStop  hc32_ll_i2c.o
    0x00013650   0x00013650   0x00000094   Code   RO         2620    i.I2C_GetStatus     hc32_ll_i2c.o
    0x000136e4   0x000136e4   0x000000f0   Code   RO         2621    i.I2C_Init          hc32_ll_i2c.o
    0x000137d4   0x000137d4   0x00000118   Code   RO         2623    i.I2C_MasterReceiveDataAndStop  hc32_ll_i2c.o
    0x000138ec   0x000138ec   0x00000074   Code   RO         3655    i.I2C_Master_Transmit  i2c.o
    0x00013960   0x00013960   0x00000068   Code   RO         2624    i.I2C_ReadData      hc32_ll_i2c.o
    0x000139c8   0x000139c8   0x00000088   Code   RO         2626    i.I2C_Restart       hc32_ll_i2c.o
    0x00013a50   0x00013a50   0x00000084   Code   RO         2632    i.I2C_SWResetCmd    hc32_ll_i2c.o
    0x00013ad4   0x00013ad4   0x00000094   Code   RO         2637    i.I2C_Start         hc32_ll_i2c.o
    0x00013b68   0x00013b68   0x00000098   Code   RO         2638    i.I2C_Stop          hc32_ll_i2c.o
    0x00013c00   0x00013c00   0x00000018   Code   RO         2639    i.I2C_StructInit    hc32_ll_i2c.o
    0x00013c18   0x00013c18   0x000000ec   Code   RO         2641    i.I2C_TransAddr     hc32_ll_i2c.o
    0x00013d04   0x00013d04   0x000000d0   Code   RO         2642    i.I2C_TransData     hc32_ll_i2c.o
    0x00013dd4   0x00013dd4   0x000000d0   Code   RO         2643    i.I2C_WaitStatus    hc32_ll_i2c.o
    0x00013ea4   0x00013ea4   0x0000006c   Code   RO         2644    i.I2C_WriteData     hc32_ll_i2c.o
    0x00013f10   0x00013f10   0x000000e8   Code   RO          757    i.INTC_IrqSignIn    hc32_ll_interrupts.o
    0x00013ff8   0x00013ff8   0x00000014   Code   RO          762    i.IRQ000_Handler    hc32_ll_interrupts.o
    0x0001400c   0x0001400c   0x00000014   Code   RO          763    i.IRQ001_Handler    hc32_ll_interrupts.o
    0x00014020   0x00014020   0x00000014   Code   RO          764    i.IRQ002_Handler    hc32_ll_interrupts.o
    0x00014034   0x00014034   0x00000014   Code   RO          765    i.IRQ003_Handler    hc32_ll_interrupts.o
    0x00014048   0x00014048   0x00000014   Code   RO          766    i.IRQ004_Handler    hc32_ll_interrupts.o
    0x0001405c   0x0001405c   0x00000014   Code   RO          767    i.IRQ005_Handler    hc32_ll_interrupts.o
    0x00014070   0x00014070   0x00000014   Code   RO          768    i.IRQ006_Handler    hc32_ll_interrupts.o
    0x00014084   0x00014084   0x00000014   Code   RO          769    i.IRQ007_Handler    hc32_ll_interrupts.o
    0x00014098   0x00014098   0x00000014   Code   RO          770    i.IRQ008_Handler    hc32_ll_interrupts.o
    0x000140ac   0x000140ac   0x00000014   Code   RO          771    i.IRQ009_Handler    hc32_ll_interrupts.o
    0x000140c0   0x000140c0   0x00000014   Code   RO          772    i.IRQ010_Handler    hc32_ll_interrupts.o
    0x000140d4   0x000140d4   0x00000014   Code   RO          773    i.IRQ011_Handler    hc32_ll_interrupts.o
    0x000140e8   0x000140e8   0x00000014   Code   RO          774    i.IRQ012_Handler    hc32_ll_interrupts.o
    0x000140fc   0x000140fc   0x00000014   Code   RO          775    i.IRQ013_Handler    hc32_ll_interrupts.o
    0x00014110   0x00014110   0x00000014   Code   RO          776    i.IRQ014_Handler    hc32_ll_interrupts.o
    0x00014124   0x00014124   0x00000014   Code   RO          777    i.IRQ015_Handler    hc32_ll_interrupts.o
    0x00014138   0x00014138   0x00000014   Code   RO          778    i.IRQ016_Handler    hc32_ll_interrupts.o
    0x0001414c   0x0001414c   0x00000014   Code   RO          779    i.IRQ017_Handler    hc32_ll_interrupts.o
    0x00014160   0x00014160   0x00000014   Code   RO          780    i.IRQ018_Handler    hc32_ll_interrupts.o
    0x00014174   0x00014174   0x00000014   Code   RO          781    i.IRQ019_Handler    hc32_ll_interrupts.o
    0x00014188   0x00014188   0x00000014   Code   RO          782    i.IRQ020_Handler    hc32_ll_interrupts.o
    0x0001419c   0x0001419c   0x00000014   Code   RO          783    i.IRQ021_Handler    hc32_ll_interrupts.o
    0x000141b0   0x000141b0   0x00000014   Code   RO          784    i.IRQ022_Handler    hc32_ll_interrupts.o
    0x000141c4   0x000141c4   0x00000014   Code   RO          785    i.IRQ023_Handler    hc32_ll_interrupts.o
    0x000141d8   0x000141d8   0x00000014   Code   RO          786    i.IRQ024_Handler    hc32_ll_interrupts.o
    0x000141ec   0x000141ec   0x00000014   Code   RO          787    i.IRQ025_Handler    hc32_ll_interrupts.o
    0x00014200   0x00014200   0x00000014   Code   RO          788    i.IRQ026_Handler    hc32_ll_interrupts.o
    0x00014214   0x00014214   0x00000014   Code   RO          789    i.IRQ027_Handler    hc32_ll_interrupts.o
    0x00014228   0x00014228   0x00000014   Code   RO          790    i.IRQ028_Handler    hc32_ll_interrupts.o
    0x0001423c   0x0001423c   0x00000014   Code   RO          791    i.IRQ029_Handler    hc32_ll_interrupts.o
    0x00014250   0x00014250   0x00000014   Code   RO          792    i.IRQ030_Handler    hc32_ll_interrupts.o
    0x00014264   0x00014264   0x00000014   Code   RO          793    i.IRQ031_Handler    hc32_ll_interrupts.o
    0x00014278   0x00014278   0x00000014   Code   RO          794    i.IRQ032_Handler    hc32_ll_interrupts.o
    0x0001428c   0x0001428c   0x00000014   Code   RO          795    i.IRQ033_Handler    hc32_ll_interrupts.o
    0x000142a0   0x000142a0   0x00000014   Code   RO          796    i.IRQ034_Handler    hc32_ll_interrupts.o
    0x000142b4   0x000142b4   0x00000014   Code   RO          797    i.IRQ035_Handler    hc32_ll_interrupts.o
    0x000142c8   0x000142c8   0x00000014   Code   RO          798    i.IRQ036_Handler    hc32_ll_interrupts.o
    0x000142dc   0x000142dc   0x00000014   Code   RO          799    i.IRQ037_Handler    hc32_ll_interrupts.o
    0x000142f0   0x000142f0   0x00000014   Code   RO          800    i.IRQ038_Handler    hc32_ll_interrupts.o
    0x00014304   0x00014304   0x00000014   Code   RO          801    i.IRQ039_Handler    hc32_ll_interrupts.o
    0x00014318   0x00014318   0x00000014   Code   RO          802    i.IRQ040_Handler    hc32_ll_interrupts.o
    0x0001432c   0x0001432c   0x00000014   Code   RO          803    i.IRQ041_Handler    hc32_ll_interrupts.o
    0x00014340   0x00014340   0x00000014   Code   RO          804    i.IRQ042_Handler    hc32_ll_interrupts.o
    0x00014354   0x00014354   0x00000014   Code   RO          805    i.IRQ043_Handler    hc32_ll_interrupts.o
    0x00014368   0x00014368   0x00000014   Code   RO          806    i.IRQ044_Handler    hc32_ll_interrupts.o
    0x0001437c   0x0001437c   0x00000014   Code   RO          807    i.IRQ045_Handler    hc32_ll_interrupts.o
    0x00014390   0x00014390   0x00000014   Code   RO          808    i.IRQ046_Handler    hc32_ll_interrupts.o
    0x000143a4   0x000143a4   0x00000014   Code   RO          809    i.IRQ047_Handler    hc32_ll_interrupts.o
    0x000143b8   0x000143b8   0x00000014   Code   RO          810    i.IRQ048_Handler    hc32_ll_interrupts.o
    0x000143cc   0x000143cc   0x00000014   Code   RO          811    i.IRQ049_Handler    hc32_ll_interrupts.o
    0x000143e0   0x000143e0   0x00000014   Code   RO          812    i.IRQ050_Handler    hc32_ll_interrupts.o
    0x000143f4   0x000143f4   0x00000014   Code   RO          813    i.IRQ051_Handler    hc32_ll_interrupts.o
    0x00014408   0x00014408   0x00000014   Code   RO          814    i.IRQ052_Handler    hc32_ll_interrupts.o
    0x0001441c   0x0001441c   0x00000014   Code   RO          815    i.IRQ053_Handler    hc32_ll_interrupts.o
    0x00014430   0x00014430   0x00000014   Code   RO          816    i.IRQ054_Handler    hc32_ll_interrupts.o
    0x00014444   0x00014444   0x00000014   Code   RO          817    i.IRQ055_Handler    hc32_ll_interrupts.o
    0x00014458   0x00014458   0x00000014   Code   RO          818    i.IRQ056_Handler    hc32_ll_interrupts.o
    0x0001446c   0x0001446c   0x00000014   Code   RO          819    i.IRQ057_Handler    hc32_ll_interrupts.o
    0x00014480   0x00014480   0x00000014   Code   RO          820    i.IRQ058_Handler    hc32_ll_interrupts.o
    0x00014494   0x00014494   0x00000014   Code   RO          821    i.IRQ059_Handler    hc32_ll_interrupts.o
    0x000144a8   0x000144a8   0x00000014   Code   RO          822    i.IRQ060_Handler    hc32_ll_interrupts.o
    0x000144bc   0x000144bc   0x00000014   Code   RO          823    i.IRQ061_Handler    hc32_ll_interrupts.o
    0x000144d0   0x000144d0   0x00000014   Code   RO          824    i.IRQ062_Handler    hc32_ll_interrupts.o
    0x000144e4   0x000144e4   0x00000014   Code   RO          825    i.IRQ063_Handler    hc32_ll_interrupts.o
    0x000144f8   0x000144f8   0x00000014   Code   RO          826    i.IRQ064_Handler    hc32_ll_interrupts.o
    0x0001450c   0x0001450c   0x00000014   Code   RO          827    i.IRQ065_Handler    hc32_ll_interrupts.o
    0x00014520   0x00014520   0x00000014   Code   RO          828    i.IRQ066_Handler    hc32_ll_interrupts.o
    0x00014534   0x00014534   0x00000014   Code   RO          829    i.IRQ067_Handler    hc32_ll_interrupts.o
    0x00014548   0x00014548   0x00000014   Code   RO          830    i.IRQ068_Handler    hc32_ll_interrupts.o
    0x0001455c   0x0001455c   0x00000014   Code   RO          831    i.IRQ069_Handler    hc32_ll_interrupts.o
    0x00014570   0x00014570   0x00000014   Code   RO          832    i.IRQ070_Handler    hc32_ll_interrupts.o
    0x00014584   0x00014584   0x00000014   Code   RO          833    i.IRQ071_Handler    hc32_ll_interrupts.o
    0x00014598   0x00014598   0x00000014   Code   RO          834    i.IRQ072_Handler    hc32_ll_interrupts.o
    0x000145ac   0x000145ac   0x00000014   Code   RO          835    i.IRQ073_Handler    hc32_ll_interrupts.o
    0x000145c0   0x000145c0   0x00000014   Code   RO          836    i.IRQ074_Handler    hc32_ll_interrupts.o
    0x000145d4   0x000145d4   0x00000014   Code   RO          837    i.IRQ075_Handler    hc32_ll_interrupts.o
    0x000145e8   0x000145e8   0x00000014   Code   RO          838    i.IRQ076_Handler    hc32_ll_interrupts.o
    0x000145fc   0x000145fc   0x00000014   Code   RO          839    i.IRQ077_Handler    hc32_ll_interrupts.o
    0x00014610   0x00014610   0x00000014   Code   RO          840    i.IRQ078_Handler    hc32_ll_interrupts.o
    0x00014624   0x00014624   0x00000014   Code   RO          841    i.IRQ079_Handler    hc32_ll_interrupts.o
    0x00014638   0x00014638   0x00000014   Code   RO          842    i.IRQ080_Handler    hc32_ll_interrupts.o
    0x0001464c   0x0001464c   0x00000014   Code   RO          843    i.IRQ081_Handler    hc32_ll_interrupts.o
    0x00014660   0x00014660   0x00000014   Code   RO          844    i.IRQ082_Handler    hc32_ll_interrupts.o
    0x00014674   0x00014674   0x00000014   Code   RO          845    i.IRQ083_Handler    hc32_ll_interrupts.o
    0x00014688   0x00014688   0x00000014   Code   RO          846    i.IRQ084_Handler    hc32_ll_interrupts.o
    0x0001469c   0x0001469c   0x00000014   Code   RO          847    i.IRQ085_Handler    hc32_ll_interrupts.o
    0x000146b0   0x000146b0   0x00000014   Code   RO          848    i.IRQ086_Handler    hc32_ll_interrupts.o
    0x000146c4   0x000146c4   0x00000014   Code   RO          849    i.IRQ087_Handler    hc32_ll_interrupts.o
    0x000146d8   0x000146d8   0x00000014   Code   RO          850    i.IRQ088_Handler    hc32_ll_interrupts.o
    0x000146ec   0x000146ec   0x00000014   Code   RO          851    i.IRQ089_Handler    hc32_ll_interrupts.o
    0x00014700   0x00014700   0x00000014   Code   RO          852    i.IRQ090_Handler    hc32_ll_interrupts.o
    0x00014714   0x00014714   0x00000014   Code   RO          853    i.IRQ091_Handler    hc32_ll_interrupts.o
    0x00014728   0x00014728   0x00000014   Code   RO          854    i.IRQ092_Handler    hc32_ll_interrupts.o
    0x0001473c   0x0001473c   0x00000014   Code   RO          855    i.IRQ093_Handler    hc32_ll_interrupts.o
    0x00014750   0x00014750   0x00000014   Code   RO          856    i.IRQ094_Handler    hc32_ll_interrupts.o
    0x00014764   0x00014764   0x00000014   Code   RO          857    i.IRQ095_Handler    hc32_ll_interrupts.o
    0x00014778   0x00014778   0x00000014   Code   RO          858    i.IRQ096_Handler    hc32_ll_interrupts.o
    0x0001478c   0x0001478c   0x00000014   Code   RO          859    i.IRQ097_Handler    hc32_ll_interrupts.o
    0x000147a0   0x000147a0   0x00000014   Code   RO          860    i.IRQ098_Handler    hc32_ll_interrupts.o
    0x000147b4   0x000147b4   0x00000014   Code   RO          861    i.IRQ099_Handler    hc32_ll_interrupts.o
    0x000147c8   0x000147c8   0x00000014   Code   RO          862    i.IRQ100_Handler    hc32_ll_interrupts.o
    0x000147dc   0x000147dc   0x00000014   Code   RO          863    i.IRQ101_Handler    hc32_ll_interrupts.o
    0x000147f0   0x000147f0   0x00000014   Code   RO          864    i.IRQ102_Handler    hc32_ll_interrupts.o
    0x00014804   0x00014804   0x00000014   Code   RO          865    i.IRQ103_Handler    hc32_ll_interrupts.o
    0x00014818   0x00014818   0x00000014   Code   RO          866    i.IRQ104_Handler    hc32_ll_interrupts.o
    0x0001482c   0x0001482c   0x00000014   Code   RO          867    i.IRQ105_Handler    hc32_ll_interrupts.o
    0x00014840   0x00014840   0x00000014   Code   RO          868    i.IRQ106_Handler    hc32_ll_interrupts.o
    0x00014854   0x00014854   0x00000014   Code   RO          869    i.IRQ107_Handler    hc32_ll_interrupts.o
    0x00014868   0x00014868   0x00000014   Code   RO          870    i.IRQ108_Handler    hc32_ll_interrupts.o
    0x0001487c   0x0001487c   0x00000014   Code   RO          871    i.IRQ109_Handler    hc32_ll_interrupts.o
    0x00014890   0x00014890   0x00000014   Code   RO          872    i.IRQ110_Handler    hc32_ll_interrupts.o
    0x000148a4   0x000148a4   0x00000014   Code   RO          873    i.IRQ111_Handler    hc32_ll_interrupts.o
    0x000148b8   0x000148b8   0x00000014   Code   RO          874    i.IRQ112_Handler    hc32_ll_interrupts.o
    0x000148cc   0x000148cc   0x00000014   Code   RO          875    i.IRQ113_Handler    hc32_ll_interrupts.o
    0x000148e0   0x000148e0   0x00000014   Code   RO          876    i.IRQ114_Handler    hc32_ll_interrupts.o
    0x000148f4   0x000148f4   0x00000014   Code   RO          877    i.IRQ115_Handler    hc32_ll_interrupts.o
    0x00014908   0x00014908   0x00000014   Code   RO          878    i.IRQ116_Handler    hc32_ll_interrupts.o
    0x0001491c   0x0001491c   0x00000014   Code   RO          879    i.IRQ117_Handler    hc32_ll_interrupts.o
    0x00014930   0x00014930   0x00000014   Code   RO          880    i.IRQ118_Handler    hc32_ll_interrupts.o
    0x00014944   0x00014944   0x00000014   Code   RO          881    i.IRQ119_Handler    hc32_ll_interrupts.o
    0x00014958   0x00014958   0x00000014   Code   RO          882    i.IRQ120_Handler    hc32_ll_interrupts.o
    0x0001496c   0x0001496c   0x00000014   Code   RO          883    i.IRQ121_Handler    hc32_ll_interrupts.o
    0x00014980   0x00014980   0x00000014   Code   RO          884    i.IRQ122_Handler    hc32_ll_interrupts.o
    0x00014994   0x00014994   0x00000014   Code   RO          885    i.IRQ123_Handler    hc32_ll_interrupts.o
    0x000149a8   0x000149a8   0x00000014   Code   RO          886    i.IRQ124_Handler    hc32_ll_interrupts.o
    0x000149bc   0x000149bc   0x00000014   Code   RO          887    i.IRQ125_Handler    hc32_ll_interrupts.o
    0x000149d0   0x000149d0   0x00000014   Code   RO          888    i.IRQ126_Handler    hc32_ll_interrupts.o
    0x000149e4   0x000149e4   0x00000014   Code   RO          889    i.IRQ127_Handler    hc32_ll_interrupts.o
    0x000149f8   0x000149f8   0x0000002c   Code   RO         3501    i.Key_Init          main.o
    0x00014a24   0x00014a24   0x00000050   Code   RO         3502    i.Key_Read          main.o
    0x00014a74   0x00014a74   0x00000090   Code   RO            4    i.LL_PERIPH_WE      hc32_ll.o
    0x00014b04   0x00014b04   0x000000a8   Code   RO         2319    i.LL_PrintfInit     hc32_ll_utility.o
    0x00014bac   0x00014bac   0x00000054   Code   RO         3656    i.Master_Initialize  i2c.o
    0x00014c00   0x00014c00   0x00000078   Code   RO         1644    i.PWC_HighSpeedToHighPerformance  hc32_ll_pwc.o
    0x00014c78   0x00014c78   0x00000018   Code   RO            7    i.PWC_REG_Unlock    hc32_ll.o
    0x00014c90   0x00014c90   0x00000034   Code   RO         3709    i.RX_DMA_TC_IrqCallback  uart_dma.o
    0x00014cc4   0x00014cc4   0x00000044   Code   RO         3586    i.Read_ASW2         flash.o
    0x00014d08   0x00014d08   0x00000044   Code   RO         3587    i.Read_AVSW         flash.o
    0x00014d4c   0x00014d4c   0x0000000c   Code   RO         3823    i.Reser_Status      videoprocess.o
    0x00014d58   0x00014d58   0x000000ec   Code   RO         1987    i.SRAM_SetWaitCycle  hc32_ll_sram.o
    0x00014e44   0x00014e44   0x00000330   Code   RO          176    i.SetSysClockDiv    hc32_ll_clk.o
    0x00015174   0x00015174   0x00000108   Code   RO          177    i.SetSysClockSrc    hc32_ll_clk.o
    0x0001527c   0x0001527c   0x00000048   Code   RO         3824    i.Signal_led        videoprocess.o
    0x000152c4   0x000152c4   0x00000284   Code   RO         2045    i.SmartCard_CalculateBrr  hc32_ll_usart.o
    0x00015548   0x00015548   0x000000cc   Code   RO         3943    i.SystemCoreClockUpdate  system_hc32f460.o
    0x00015614   0x00015614   0x00000024   Code   RO         3944    i.SystemInit        system_hc32f460.o
    0x00015638   0x00015638   0x000000ec   Code   RO         3294    i.TMR02_A_Config    ev_hc32f460_lqfp100_v2.o
    0x00015724   0x00015724   0x000001ac   Code   RO         3295    i.TMR0_CHA_CompareIrqCallback  ev_hc32f460_lqfp100_v2.o
    0x000158d0   0x000158d0   0x00000080   Code   RO         2474    i.TMR0_ClearStatus  hc32_ll_tmr0.o
    0x00015950   0x00015950   0x00000088   Code   RO         3710    i.TMR0_Config       uart_dma.o
    0x000159d8   0x000159d8   0x000000ac   Code   RO         2480    i.TMR0_HWClearCondCmd  hc32_ll_tmr0.o
    0x00015a84   0x00015a84   0x000000ac   Code   RO         2481    i.TMR0_HWStartCondCmd  hc32_ll_tmr0.o
    0x00015b30   0x00015b30   0x000000ac   Code   RO         2482    i.TMR0_HWStopCondCmd  hc32_ll_tmr0.o
    0x00015bdc   0x00015bdc   0x00000154   Code   RO         2483    i.TMR0_Init         hc32_ll_tmr0.o
    0x00015d30   0x00015d30   0x000000a0   Code   RO         2484    i.TMR0_IntCmd       hc32_ll_tmr0.o
    0x00015dd0   0x00015dd0   0x0000007c   Code   RO         2490    i.TMR0_Start        hc32_ll_tmr0.o
    0x00015e4c   0x00015e4c   0x00000080   Code   RO         2491    i.TMR0_Stop         hc32_ll_tmr0.o
    0x00015ecc   0x00015ecc   0x0000001a   Code   RO         2492    i.TMR0_StructInit   hc32_ll_tmr0.o
    0x00015ee6   0x00015ee6   0x00000002   PAD
    0x00015ee8   0x00015ee8   0x00000020   Code   RO         3711    i.TX_DMA_TC_IrqCallback  uart_dma.o
    0x00015f08   0x00015f08   0x0000028c   Code   RO         2046    i.UART_CalculateBrr  hc32_ll_usart.o
    0x00016194   0x00016194   0x000000b4   Code   RO         2047    i.USART_ClearStatus  hc32_ll_usart.o
    0x00016248   0x00016248   0x000000c0   Code   RO         2055    i.USART_FuncCmd     hc32_ll_usart.o
    0x00016308   0x00016308   0x0000001c   Code   RO         2056    i.USART_GetBusClockFreq  hc32_ll_usart.o
    0x00016324   0x00016324   0x00000090   Code   RO         2060    i.USART_GetUsartClockFreq  hc32_ll_usart.o
    0x000163b4   0x000163b4   0x00000074   Code   RO         2063    i.USART_ReadData    hc32_ll_usart.o
    0x00016428   0x00016428   0x00000018   Code   RO         3712    i.USART_RxError_IrqCallback  uart_dma.o
    0x00016440   0x00016440   0x00000058   Code   RO         3713    i.USART_RxTimeout_IrqCallback  uart_dma.o
    0x00016498   0x00016498   0x00000118   Code   RO         2064    i.USART_SetBaudrate  hc32_ll_usart.o
    0x000165b0   0x000165b0   0x00000090   Code   RO         2065    i.USART_SetClockDiv  hc32_ll_usart.o
    0x00016640   0x00016640   0x0000003c   Code   RO         3714    i.USART_TxComplete_IrqCallback  uart_dma.o
    0x0001667c   0x0001667c   0x000001f8   Code   RO         2079    i.USART_UART_Init   hc32_ll_usart.o
    0x00016874   0x00016874   0x0000002e   Code   RO         2081    i.USART_UART_StructInit  hc32_ll_usart.o
    0x000168a2   0x000168a2   0x00000002   PAD
    0x000168a4   0x000168a4   0x0000019c   Code   RO         3588    i.Video_ReadNot2    flash.o
    0x00016a40   0x00016a40   0x0000000e   Code   RO         3826    i.Video_Sw          videoprocess.o
    0x00016a4e   0x00016a4e   0x00000002   PAD
    0x00016a50   0x00016a50   0x00000020   Code   RO         4311    i.__0printf$8       mc_w.l(printf8.o)
    0x00016a70   0x00016a70   0x00000028   Code   RO         4313    i.__0sprintf$8      mc_w.l(printf8.o)
    0x00016a98   0x00016a98   0x0000001c   Code   RO         3715    i.__NVIC_ClearPendingIRQ  uart_dma.o
    0x00016ab4   0x00016ab4   0x00000022   Code   RO         3716    i.__NVIC_EnableIRQ  uart_dma.o
    0x00016ad6   0x00016ad6   0x00000002   PAD
    0x00016ad8   0x00016ad8   0x00000028   Code   RO         3717    i.__NVIC_SetPriority  uart_dma.o
    0x00016b00   0x00016b00   0x0000000e   Code   RO         4412    i.__scatterload_copy  mc_w.l(handlers.o)
    0x00016b0e   0x00016b0e   0x00000002   Code   RO         4413    i.__scatterload_null  mc_w.l(handlers.o)
    0x00016b10   0x00016b10   0x0000000e   Code   RO         4414    i.__scatterload_zeroinit  mc_w.l(handlers.o)
    0x00016b1e   0x00016b1e   0x00000002   PAD
    0x00016b20   0x00016b20   0x00000410   Code   RO         4318    i._printf_core      mc_w.l(printf8.o)
    0x00016f30   0x00016f30   0x00000024   Code   RO         4319    i._printf_post_padding  mc_w.l(printf8.o)
    0x00016f54   0x00016f54   0x0000002e   Code   RO         4320    i._printf_pre_padding  mc_w.l(printf8.o)
    0x00016f82   0x00016f82   0x0000000a   Code   RO         4322    i._sputc            mc_w.l(printf8.o)
    0x00016f8c   0x00016f8c   0x000000ec   Code   RO         3990    i.cm_backtrace_call_stack  cm_backtrace.o
    0x00017078   0x00017078   0x0000028c   Code   RO         3992    i.cm_backtrace_fault  cm_backtrace.o
    0x00017304   0x00017304   0x0000002c   Code   RO         3993    i.cm_backtrace_firmware_info  cm_backtrace.o
    0x00017330   0x00017330   0x0000018c   Code   RO         3827    i.detect_loop       videoprocess.o
    0x000174bc   0x000174bc   0x00000030   Code   RO         3995    i.disassembly_ins_is_bl_blx  cm_backtrace.o
    0x000174ec   0x000174ec   0x000000dc   Code   RO         3996    i.dump_stack        cm_backtrace.o
    0x000175c8   0x000175c8   0x00000308   Code   RO         3997    i.fault_diagnosis   cm_backtrace.o
    0x000178d0   0x000178d0   0x00000018   Code   RO         2326    i.fputc             hc32_ll_utility.o
    0x000178e8   0x000178e8   0x00000334   Code   RO         3718    i.get_mode          uart_dma.o
    0x00017c1c   0x00017c1c   0x00000068   Code   RO         3657    i.i2c_init          i2c.o
    0x00017c84   0x00017c84   0x00000128   Code   RO         3505    i.main              main.o
    0x00017dac   0x00017dac   0x00000138   Code   RO         3589    i.mem_settings      flash.o
    0x00017ee4   0x00017ee4   0x00000098   Code   RO         3998    i.print_call_stack  cm_backtrace.o
    0x00017f7c   0x00017f7c   0x00000048   Code   RO         3828    i.set_ace           videoprocess.o
    0x00017fc4   0x00017fc4   0x00000090   Code   RO         3829    i.set_bcsh          videoprocess.o
    0x00018054   0x00018054   0x00000048   Code   RO         3830    i.set_double_line   videoprocess.o
    0x0001809c   0x0001809c   0x00000050   Code   RO         3831    i.set_input         videoprocess.o
    0x000180ec   0x000180ec   0x00000050   Code   RO         3832    i.set_smooth        videoprocess.o
    0x0001813c   0x0001813c   0x000006bc   Code   RO         3719    i.signal_turn       uart_dma.o
    0x000187f8   0x000187f8   0x00000024   Code   RO         3999    i.statck_del_fpu_regs  cm_backtrace.o
    0x0001881c   0x0001881c   0x00000114   Code   RO         3720    i.uart_dma_init     uart_dma.o
    0x00018930   0x00018930   0x0000012c   Code   RO         3507    i.vd_Button_Init    main.o
    0x00018a5c   0x00018a5c   0x00000038   Code   RO         3833    i.video_Deinit      videoprocess.o
    0x00018a94   0x00018a94   0x00000120   Code   RO         3834    i.video_init        videoprocess.o
    0x00018bb4   0x00018bb4   0x00000010   Data   RO         2087    .constdata          hc32_ll_usart.o
    0x00018bc4   0x00018bc4   0x0000000f   Data   RO         3836    .constdata          videoprocess.o
    0x00018bd3   0x00018bd3   0x00000001   PAD
    0x00018bd4   0x00018bd4   0x000000e0   Data   RO         4001    .constdata          cm_backtrace.o
    0x00018cb4   0x00018cb4   0x00000666   Data   RO         4002    .conststring        cm_backtrace.o
    0x0001931a   0x0001931a   0x00000002   PAD
    0x0001931c   0x0001931c   0x00000020   Data   RO         4410    Region$$Table       anon$$obj.o


    Execution Region RW_IRAM1 (Exec base: 0x1fff8000, Load base: 0x0001933c, Size: 0x000014c8, Max: 0x0002f000, ABSOLUTE, COMPRESSED[0x000000f4])

    Exec Addr    Load Addr    Size         Type   Attr      Idx    E Section Name        Object

    0x1fff8000   COMPRESSED   0x00000010   Data   RW         2327    .data               hc32_ll_utility.o
    0x1fff8010   COMPRESSED   0x00000001   Data   RW         3038    .data               hc32_ll_dma.o
    0x1fff8011   COMPRESSED   0x00000003   PAD
    0x1fff8014   COMPRESSED   0x0000001c   Data   RW         3296    .data               ev_hc32f460_lqfp100_v2.o
    0x1fff8030   COMPRESSED   0x00000026   Data   RW         3509    .data               main.o
    0x1fff8056   COMPRESSED   0x00000004   Data   RW         3723    .data               uart_dma.o
    0x1fff805a   COMPRESSED   0x0000016e   Data   RW         3837    .data               videoprocess.o
    0x1fff81c8   COMPRESSED   0x00000008   Data   RW         3945    .data               system_hc32f460.o
    0x1fff81d0   COMPRESSED   0x00000015   Data   RW         4003    .data               cm_backtrace.o
    0x1fff81e5   COMPRESSED   0x00000003   PAD
    0x1fff81e8   COMPRESSED   0x00000004   Data   RW         4093    .data               mc_w.l(stdout.o)
    0x1fff81ec        -       0x00000200   Zero   RW          895    .bss                hc32_ll_interrupts.o
    0x1fff83ec        -       0x00000100   Zero   RW         3590    .bss                flash.o
    0x1fff84ec        -       0x00000214   Zero   RW         3722    .bss                uart_dma.o
    0x1fff8700        -       0x000001c8   Zero   RW         4000    .bss                cm_backtrace.o
    0x1fff88c8        -       0x00000c00   Zero   RW         3981    STACK               startup_hc32f460.o


==============================================================================

Image component sizes


      Code (inc. data)   RO Data    RW Data    ZI Data      Debug   Object Name

      2164        400       1862         21        456      14526   cm_backtrace.o
        12          0          0          0          0        488   cmb_fault.o
      1400        106          0         28          0     342604   ev_hc32f460_lqfp100_v2.o
      1076        224          0          0        256       5936   flash.o
       168         32          0          0          0     321115   hc32_ll.o
       244         52          0          0          0        821   hc32_ll_aos.o
      2788        444          0          0          0      18506   hc32_ll_clk.o
      1998        516          0          1          0      11728   hc32_ll_dma.o
      1436        370          0          0          0      13324   hc32_ll_efm.o
       432        168          0          0          0       2231   hc32_ll_fcg.o
      1636        426          0          0          0      14161   hc32_ll_gpio.o
      3676       1324          0          0          0      19073   hc32_ll_i2c.o
      2792        640          0          0        512      80177   hc32_ll_interrupts.o
       120         52          0          0          0        661   hc32_ll_pwc.o
       236         54          0          0          0        888   hc32_ll_sram.o
      1422        460          0          0          0       8657   hc32_ll_tmr0.o
      3466        714         16          0          0      13675   hc32_ll_usart.o
       464        150          0         16          0       5664   hc32_ll_utility.o
       640         66          0          0          0       4097   i2c.o
       720         66          0         38          0       6729   main.o
        88         20        640          0       3072        864   startup_hc32f460.o
       254         42          0          8          0       2434   system_hc32f460.o
      3774        574          0          4        532      41856   uart_dma.o
      1868        408         15        366          0      11990   videoprocess.o

    ----------------------------------------------------------------------
     32890       7308       2568        488       4828     942205   Object Totals
         0          0         32          0          0          0   (incl. Generated)
        16          0          3          6          0          0   (incl. Padding)

    ----------------------------------------------------------------------

      Code (inc. data)   RO Data    RW Data    ZI Data      Debug   Library Member Name

        86          0          0          0          0          0   __dczerorl2.o
         0          0          0          0          0          0   entry.o
         0          0          0          0          0          0   entry10a.o
         0          0          0          0          0          0   entry11a.o
         8          4          0          0          0          0   entry2.o
         4          0          0          0          0          0   entry5.o
         0          0          0          0          0          0   entry7b.o
         0          0          0          0          0          0   entry8b.o
         8          4          0          0          0          0   entry9a.o
        30          0          0          0          0          0   handlers.o
        36          8          0          0          0         68   init.o
         0          0          0          0          0          0   iusefp.o
        30          0          0          0          0         68   llshl.o
        32          0          0          0          0         68   llushr.o
        36          0          0          0          0         68   memcpya.o
        36          0          0          0          0        108   memseta.o
      1204         60          0          0          0        504   printf8.o
         0          0          0          4          0          0   stdout.o
        98          0          0          0          0         92   uldiv.o
        56          0          0          0          0         88   d2f.o
       222          0          0          0          0        100   ddiv.o
       186          0          0          0          0        176   depilogue.o
        26          0          0          0          0         76   dfltui.o
        24          0          0          0          0         76   dfltul.o
       110          0          0          0          0        168   fepilogue.o

    ----------------------------------------------------------------------
      2234         76          0          4          0       1660   Library Totals
         2          0          0          0          0          0   (incl. Padding)

    ----------------------------------------------------------------------

      Code (inc. data)   RO Data    RW Data    ZI Data      Debug   Library Name

      1608         76          0          4          0        976   mc_w.l
       624          0          0          0          0        684   mf_w.l

    ----------------------------------------------------------------------
      2234         76          0          4          0       1660   Library Totals

    ----------------------------------------------------------------------

==============================================================================


      Code (inc. data)   RO Data    RW Data    ZI Data      Debug   

     35124       7384       2568        492       4828     914417   Grand Totals
     35124       7384       2568        244       4828     914417   ELF Image Totals (compressed)
     35124       7384       2568        244          0          0   ROM Totals

==============================================================================

    Total RO  Size (Code + RO Data)                37692 (  36.81kB)
    Total RW  Size (RW Data + ZI Data)              5320 (   5.20kB)
    Total ROM Size (Code + RO Data + RW Data)      37936 (  37.05kB)

==============================================================================

